ccopy_reg
_reconstructor
p1
(cnetwork_update.datamodel
InstanceStorage
p2
c__builtin__
object
p3
NtRp4
(dp5
S'instance_dictionary'
p6
(dp7
I0
g1
(cnetwork_update.datamodel
NetworkUpdateInstance
p8
g3
NtRp9
(dp10
S'end'
p11
I8
sS'number_of_nodes'
p12
I8
sS'rounds'
p13
I7
sS'start'
p14
I1
sS'number_of_waypoints'
p15
I0
sS'new_edges'
p16
(lp17
(I1
I5
tp18
a(I5
I3
tp19
a(I3
I7
tp20
a(I7
I2
tp21
a(I2
I6
tp22
a(I6
I4
tp23
a(I4
I8
tp24
asS'wp'
p25
(dp26
sS'fixings'
p27
(dp28
sS'nodes'
p29
(lp30
I1
aI2
aI3
aI4
aI5
aI6
aI7
aI8
asS'old_edges'
p31
(lp32
(I1
I2
tp33
a(I2
I3
tp34
a(I3
I4
tp35
a(I4
I5
tp36
a(I5
I6
tp37
a(I6
I7
tp38
a(I7
I8
tp39
asbsI1
g1
(g8
g3
NtRp40
(dp41
g11
I16
sg12
I16
sg13
I15
sg14
I1
sg15
I0
sg16
(lp42
(I1
I9
tp43
a(I9
I5
tp44
a(I5
I13
tp45
a(I13
I3
tp46
a(I3
I11
tp47
a(I11
I7
tp48
a(I7
I15
tp49
a(I15
I2
tp50
a(I2
I10
tp51
a(I10
I6
tp52
a(I6
I14
tp53
a(I14
I4
tp54
a(I4
I12
tp55
a(I12
I8
tp56
a(I8
I16
tp57
asg25
(dp58
sg27
(dp59
sg29
(lp60
I1
aI2
aI3
aI4
aI5
aI6
aI7
aI8
aI9
aI10
aI11
aI12
aI13
aI14
aI15
aI16
asg31
(lp61
(I1
I2
tp62
a(I2
I3
tp63
a(I3
I4
tp64
a(I4
I5
tp65
a(I5
I6
tp66
a(I6
I7
tp67
a(I7
I8
tp68
a(I8
I9
tp69
a(I9
I10
tp70
a(I10
I11
tp71
a(I11
I12
tp72
a(I12
I13
tp73
a(I13
I14
tp74
a(I14
I15
tp75
a(I15
I16
tp76
asbsI2
g1
(g8
g3
NtRp77
(dp78
g11
I32
sg12
I32
sg13
I31
sg14
I1
sg15
I0
sg16
(lp79
(I1
I17
tp80
a(I17
I9
tp81
a(I9
I25
tp82
a(I25
I5
tp83
a(I5
I21
tp84
a(I21
I13
tp85
a(I13
I29
tp86
a(I29
I2
tp87
a(I2
I18
tp88
a(I18
I10
tp89
a(I10
I26
tp90
a(I26
I6
tp91
a(I6
I22
tp92
a(I22
I14
tp93
a(I14
I30
tp94
a(I30
I3
tp95
a(I3
I19
tp96
a(I19
I11
tp97
a(I11
I27
tp98
a(I27
I7
tp99
a(I7
I23
tp100
a(I23
I15
tp101
a(I15
I31
tp102
a(I31
I4
tp103
a(I4
I20
tp104
a(I20
I12
tp105
a(I12
I28
tp106
a(I28
I8
tp107
a(I8
I24
tp108
a(I24
I16
tp109
a(I16
I32
tp110
asg25
(dp111
sg27
(dp112
sg29
(lp113
I1
aI2
aI3
aI4
aI5
aI6
aI7
aI8
aI9
aI10
aI11
aI12
aI13
aI14
aI15
aI16
aI17
aI18
aI19
aI20
aI21
aI22
aI23
aI24
aI25
aI26
aI27
aI28
aI29
aI30
aI31
aI32
asg31
(lp114
(I1
I2
tp115
a(I2
I3
tp116
a(I3
I4
tp117
a(I4
I5
tp118
a(I5
I6
tp119
a(I6
I7
tp120
a(I7
I8
tp121
a(I8
I9
tp122
a(I9
I10
tp123
a(I10
I11
tp124
a(I11
I12
tp125
a(I12
I13
tp126
a(I13
I14
tp127
a(I14
I15
tp128
a(I15
I16
tp129
a(I16
I17
tp130
a(I17
I18
tp131
a(I18
I19
tp132
a(I19
I20
tp133
a(I20
I21
tp134
a(I21
I22
tp135
a(I22
I23
tp136
a(I23
I24
tp137
a(I24
I25
tp138
a(I25
I26
tp139
a(I26
I27
tp140
a(I27
I28
tp141
a(I28
I29
tp142
a(I29
I30
tp143
a(I30
I31
tp144
a(I31
I32
tp145
asbsI3
g1
(g8
g3
NtRp146
(dp147
g11
I64
sg12
I64
sg13
I38
sg14
I1
sg15
I0
sg16
(lp148
(I1
I33
tp149
a(I33
I17
tp150
a(I17
I49
tp151
a(I49
I9
tp152
a(I9
I41
tp153
a(I41
I25
tp154
a(I25
I57
tp155
a(I57
I2
tp156
a(I2
I34
tp157
a(I34
I18
tp158
a(I18
I50
tp159
a(I50
I10
tp160
a(I10
I42
tp161
a(I42
I26
tp162
a(I26
I58
tp163
a(I58
I3
tp164
a(I3
I35
tp165
a(I35
I19
tp166
a(I19
I51
tp167
a(I51
I11
tp168
a(I11
I43
tp169
a(I43
I27
tp170
a(I27
I59
tp171
a(I59
I4
tp172
a(I4
I36
tp173
a(I36
I20
tp174
a(I20
I52
tp175
a(I52
I12
tp176
a(I12
I44
tp177
a(I44
I28
tp178
a(I28
I60
tp179
a(I60
I5
tp180
a(I5
I37
tp181
a(I37
I21
tp182
a(I21
I53
tp183
a(I53
I13
tp184
a(I13
I45
tp185
a(I45
I29
tp186
a(I29
I61
tp187
a(I61
I6
tp188
a(I6
I38
tp189
a(I38
I22
tp190
a(I22
I54
tp191
a(I54
I14
tp192
a(I14
I46
tp193
a(I46
I30
tp194
a(I30
I62
tp195
a(I62
I7
tp196
a(I7
I39
tp197
a(I39
I23
tp198
a(I23
I55
tp199
a(I55
I15
tp200
a(I15
I47
tp201
a(I47
I31
tp202
a(I31
I63
tp203
a(I63
I8
tp204
a(I8
I40
tp205
a(I40
I24
tp206
a(I24
I56
tp207
a(I56
I16
tp208
a(I16
I48
tp209
a(I48
I32
tp210
a(I32
I64
tp211
asg25
(dp212
sg27
(dp213
sg29
(lp214
I1
aI2
aI3
aI4
aI5
aI6
aI7
aI8
aI9
aI10
aI11
aI12
aI13
aI14
aI15
aI16
aI17
aI18
aI19
aI20
aI21
aI22
aI23
aI24
aI25
aI26
aI27
aI28
aI29
aI30
aI31
aI32
aI33
aI34
aI35
aI36
aI37
aI38
aI39
aI40
aI41
aI42
aI43
aI44
aI45
aI46
aI47
aI48
aI49
aI50
aI51
aI52
aI53
aI54
aI55
aI56
aI57
aI58
aI59
aI60
aI61
aI62
aI63
aI64
asg31
(lp215
(I1
I2
tp216
a(I2
I3
tp217
a(I3
I4
tp218
a(I4
I5
tp219
a(I5
I6
tp220
a(I6
I7
tp221
a(I7
I8
tp222
a(I8
I9
tp223
a(I9
I10
tp224
a(I10
I11
tp225
a(I11
I12
tp226
a(I12
I13
tp227
a(I13
I14
tp228
a(I14
I15
tp229
a(I15
I16
tp230
a(I16
I17
tp231
a(I17
I18
tp232
a(I18
I19
tp233
a(I19
I20
tp234
a(I20
I21
tp235
a(I21
I22
tp236
a(I22
I23
tp237
a(I23
I24
tp238
a(I24
I25
tp239
a(I25
I26
tp240
a(I26
I27
tp241
a(I27
I28
tp242
a(I28
I29
tp243
a(I29
I30
tp244
a(I30
I31
tp245
a(I31
I32
tp246
a(I32
I33
tp247
a(I33
I34
tp248
a(I34
I35
tp249
a(I35
I36
tp250
a(I36
I37
tp251
a(I37
I38
tp252
a(I38
I39
tp253
a(I39
I40
tp254
a(I40
I41
tp255
a(I41
I42
tp256
a(I42
I43
tp257
a(I43
I44
tp258
a(I44
I45
tp259
a(I45
I46
tp260
a(I46
I47
tp261
a(I47
I48
tp262
a(I48
I49
tp263
a(I49
I50
tp264
a(I50
I51
tp265
a(I51
I52
tp266
a(I52
I53
tp267
a(I53
I54
tp268
a(I54
I55
tp269
a(I55
I56
tp270
a(I56
I57
tp271
a(I57
I58
tp272
a(I58
I59
tp273
a(I59
I60
tp274
a(I60
I61
tp275
a(I61
I62
tp276
a(I62
I63
tp277
a(I63
I64
tp278
asbsI4
g1
(g8
g3
NtRp279
(dp280
g11
I128
sg12
I128
sg13
I44
sg14
I1
sg15
I0
sg16
(lp281
(I1
I65
tp282
a(I65
I33
tp283
a(I33
I97
tp284
a(I97
I17
tp285
a(I17
I81
tp286
a(I81
I49
tp287
a(I49
I113
tp288
a(I113
I2
tp289
a(I2
I66
tp290
a(I66
I34
tp291
a(I34
I98
tp292
a(I98
I18
tp293
a(I18
I82
tp294
a(I82
I50
tp295
a(I50
I114
tp296
a(I114
I3
tp297
a(I3
I67
tp298
a(I67
I35
tp299
a(I35
I99
tp300
a(I99
I19
tp301
a(I19
I83
tp302
a(I83
I51
tp303
a(I51
I115
tp304
a(I115
I4
tp305
a(I4
I68
tp306
a(I68
I36
tp307
a(I36
I100
tp308
a(I100
I20
tp309
a(I20
I84
tp310
a(I84
I52
tp311
a(I52
I116
tp312
a(I116
I5
tp313
a(I5
I69
tp314
a(I69
I37
tp315
a(I37
I101
tp316
a(I101
I21
tp317
a(I21
I85
tp318
a(I85
I53
tp319
a(I53
I117
tp320
a(I117
I6
tp321
a(I6
I70
tp322
a(I70
I38
tp323
a(I38
I102
tp324
a(I102
I22
tp325
a(I22
I86
tp326
a(I86
I54
tp327
a(I54
I118
tp328
a(I118
I7
tp329
a(I7
I71
tp330
a(I71
I39
tp331
a(I39
I103
tp332
a(I103
I23
tp333
a(I23
I87
tp334
a(I87
I55
tp335
a(I55
I119
tp336
a(I119
I8
tp337
a(I8
I72
tp338
a(I72
I40
tp339
a(I40
I104
tp340
a(I104
I24
tp341
a(I24
I88
tp342
a(I88
I56
tp343
a(I56
I120
tp344
a(I120
I9
tp345
a(I9
I73
tp346
a(I73
I41
tp347
a(I41
I105
tp348
a(I105
I25
tp349
a(I25
I89
tp350
a(I89
I57
tp351
a(I57
I121
tp352
a(I121
I10
tp353
a(I10
I74
tp354
a(I74
I42
tp355
a(I42
I106
tp356
a(I106
I26
tp357
a(I26
I90
tp358
a(I90
I58
tp359
a(I58
I122
tp360
a(I122
I11
tp361
a(I11
I75
tp362
a(I75
I43
tp363
a(I43
I107
tp364
a(I107
I27
tp365
a(I27
I91
tp366
a(I91
I59
tp367
a(I59
I123
tp368
a(I123
I12
tp369
a(I12
I76
tp370
a(I76
I44
tp371
a(I44
I108
tp372
a(I108
I28
tp373
a(I28
I92
tp374
a(I92
I60
tp375
a(I60
I124
tp376
a(I124
I13
tp377
a(I13
I77
tp378
a(I77
I45
tp379
a(I45
I109
tp380
a(I109
I29
tp381
a(I29
I93
tp382
a(I93
I61
tp383
a(I61
I125
tp384
a(I125
I14
tp385
a(I14
I78
tp386
a(I78
I46
tp387
a(I46
I110
tp388
a(I110
I30
tp389
a(I30
I94
tp390
a(I94
I62
tp391
a(I62
I126
tp392
a(I126
I15
tp393
a(I15
I79
tp394
a(I79
I47
tp395
a(I47
I111
tp396
a(I111
I31
tp397
a(I31
I95
tp398
a(I95
I63
tp399
a(I63
I127
tp400
a(I127
I16
tp401
a(I16
I80
tp402
a(I80
I48
tp403
a(I48
I112
tp404
a(I112
I32
tp405
a(I32
I96
tp406
a(I96
I64
tp407
a(I64
I128
tp408
asg25
(dp409
sg27
(dp410
sg29
(lp411
I1
aI2
aI3
aI4
aI5
aI6
aI7
aI8
aI9
aI10
aI11
aI12
aI13
aI14
aI15
aI16
aI17
aI18
aI19
aI20
aI21
aI22
aI23
aI24
aI25
aI26
aI27
aI28
aI29
aI30
aI31
aI32
aI33
aI34
aI35
aI36
aI37
aI38
aI39
aI40
aI41
aI42
aI43
aI44
aI45
aI46
aI47
aI48
aI49
aI50
aI51
aI52
aI53
aI54
aI55
aI56
aI57
aI58
aI59
aI60
aI61
aI62
aI63
aI64
aI65
aI66
aI67
aI68
aI69
aI70
aI71
aI72
aI73
aI74
aI75
aI76
aI77
aI78
aI79
aI80
aI81
aI82
aI83
aI84
aI85
aI86
aI87
aI88
aI89
aI90
aI91
aI92
aI93
aI94
aI95
aI96
aI97
aI98
aI99
aI100
aI101
aI102
aI103
aI104
aI105
aI106
aI107
aI108
aI109
aI110
aI111
aI112
aI113
aI114
aI115
aI116
aI117
aI118
aI119
aI120
aI121
aI122
aI123
aI124
aI125
aI126
aI127
aI128
asg31
(lp412
(I1
I2
tp413
a(I2
I3
tp414
a(I3
I4
tp415
a(I4
I5
tp416
a(I5
I6
tp417
a(I6
I7
tp418
a(I7
I8
tp419
a(I8
I9
tp420
a(I9
I10
tp421
a(I10
I11
tp422
a(I11
I12
tp423
a(I12
I13
tp424
a(I13
I14
tp425
a(I14
I15
tp426
a(I15
I16
tp427
a(I16
I17
tp428
a(I17
I18
tp429
a(I18
I19
tp430
a(I19
I20
tp431
a(I20
I21
tp432
a(I21
I22
tp433
a(I22
I23
tp434
a(I23
I24
tp435
a(I24
I25
tp436
a(I25
I26
tp437
a(I26
I27
tp438
a(I27
I28
tp439
a(I28
I29
tp440
a(I29
I30
tp441
a(I30
I31
tp442
a(I31
I32
tp443
a(I32
I33
tp444
a(I33
I34
tp445
a(I34
I35
tp446
a(I35
I36
tp447
a(I36
I37
tp448
a(I37
I38
tp449
a(I38
I39
tp450
a(I39
I40
tp451
a(I40
I41
tp452
a(I41
I42
tp453
a(I42
I43
tp454
a(I43
I44
tp455
a(I44
I45
tp456
a(I45
I46
tp457
a(I46
I47
tp458
a(I47
I48
tp459
a(I48
I49
tp460
a(I49
I50
tp461
a(I50
I51
tp462
a(I51
I52
tp463
a(I52
I53
tp464
a(I53
I54
tp465
a(I54
I55
tp466
a(I55
I56
tp467
a(I56
I57
tp468
a(I57
I58
tp469
a(I58
I59
tp470
a(I59
I60
tp471
a(I60
I61
tp472
a(I61
I62
tp473
a(I62
I63
tp474
a(I63
I64
tp475
a(I64
I65
tp476
a(I65
I66
tp477
a(I66
I67
tp478
a(I67
I68
tp479
a(I68
I69
tp480
a(I69
I70
tp481
a(I70
I71
tp482
a(I71
I72
tp483
a(I72
I73
tp484
a(I73
I74
tp485
a(I74
I75
tp486
a(I75
I76
tp487
a(I76
I77
tp488
a(I77
I78
tp489
a(I78
I79
tp490
a(I79
I80
tp491
a(I80
I81
tp492
a(I81
I82
tp493
a(I82
I83
tp494
a(I83
I84
tp495
a(I84
I85
tp496
a(I85
I86
tp497
a(I86
I87
tp498
a(I87
I88
tp499
a(I88
I89
tp500
a(I89
I90
tp501
a(I90
I91
tp502
a(I91
I92
tp503
a(I92
I93
tp504
a(I93
I94
tp505
a(I94
I95
tp506
a(I95
I96
tp507
a(I96
I97
tp508
a(I97
I98
tp509
a(I98
I99
tp510
a(I99
I100
tp511
a(I100
I101
tp512
a(I101
I102
tp513
a(I102
I103
tp514
a(I103
I104
tp515
a(I104
I105
tp516
a(I105
I106
tp517
a(I106
I107
tp518
a(I107
I108
tp519
a(I108
I109
tp520
a(I109
I110
tp521
a(I110
I111
tp522
a(I111
I112
tp523
a(I112
I113
tp524
a(I113
I114
tp525
a(I114
I115
tp526
a(I115
I116
tp527
a(I116
I117
tp528
a(I117
I118
tp529
a(I118
I119
tp530
a(I119
I120
tp531
a(I120
I121
tp532
a(I121
I122
tp533
a(I122
I123
tp534
a(I123
I124
tp535
a(I124
I125
tp536
a(I125
I126
tp537
a(I126
I127
tp538
a(I127
I128
tp539
asbsI5
g1
(g8
g3
NtRp540
(dp541
g11
I256
sg12
I256
sg13
I50
sg14
I1
sg15
I0
sg16
(lp542
(I1
I129
tp543
a(I129
I65
tp544
a(I65
I193
tp545
a(I193
I33
tp546
a(I33
I161
tp547
a(I161
I97
tp548
a(I97
I225
tp549
a(I225
I2
tp550
a(I2
I130
tp551
a(I130
I66
tp552
a(I66
I194
tp553
a(I194
I34
tp554
a(I34
I162
tp555
a(I162
I98
tp556
a(I98
I226
tp557
a(I226
I3
tp558
a(I3
I131
tp559
a(I131
I67
tp560
a(I67
I195
tp561
a(I195
I35
tp562
a(I35
I163
tp563
a(I163
I99
tp564
a(I99
I227
tp565
a(I227
I4
tp566
a(I4
I132
tp567
a(I132
I68
tp568
a(I68
I196
tp569
a(I196
I36
tp570
a(I36
I164
tp571
a(I164
I100
tp572
a(I100
I228
tp573
a(I228
I5
tp574
a(I5
I133
tp575
a(I133
I69
tp576
a(I69
I197
tp577
a(I197
I37
tp578
a(I37
I165
tp579
a(I165
I101
tp580
a(I101
I229
tp581
a(I229
I6
tp582
a(I6
I134
tp583
a(I134
I70
tp584
a(I70
I198
tp585
a(I198
I38
tp586
a(I38
I166
tp587
a(I166
I102
tp588
a(I102
I230
tp589
a(I230
I7
tp590
a(I7
I135
tp591
a(I135
I71
tp592
a(I71
I199
tp593
a(I199
I39
tp594
a(I39
I167
tp595
a(I167
I103
tp596
a(I103
I231
tp597
a(I231
I8
tp598
a(I8
I136
tp599
a(I136
I72
tp600
a(I72
I200
tp601
a(I200
I40
tp602
a(I40
I168
tp603
a(I168
I104
tp604
a(I104
I232
tp605
a(I232
I9
tp606
a(I9
I137
tp607
a(I137
I73
tp608
a(I73
I201
tp609
a(I201
I41
tp610
a(I41
I169
tp611
a(I169
I105
tp612
a(I105
I233
tp613
a(I233
I10
tp614
a(I10
I138
tp615
a(I138
I74
tp616
a(I74
I202
tp617
a(I202
I42
tp618
a(I42
I170
tp619
a(I170
I106
tp620
a(I106
I234
tp621
a(I234
I11
tp622
a(I11
I139
tp623
a(I139
I75
tp624
a(I75
I203
tp625
a(I203
I43
tp626
a(I43
I171
tp627
a(I171
I107
tp628
a(I107
I235
tp629
a(I235
I12
tp630
a(I12
I140
tp631
a(I140
I76
tp632
a(I76
I204
tp633
a(I204
I44
tp634
a(I44
I172
tp635
a(I172
I108
tp636
a(I108
I236
tp637
a(I236
I13
tp638
a(I13
I141
tp639
a(I141
I77
tp640
a(I77
I205
tp641
a(I205
I45
tp642
a(I45
I173
tp643
a(I173
I109
tp644
a(I109
I237
tp645
a(I237
I14
tp646
a(I14
I142
tp647
a(I142
I78
tp648
a(I78
I206
tp649
a(I206
I46
tp650
a(I46
I174
tp651
a(I174
I110
tp652
a(I110
I238
tp653
a(I238
I15
tp654
a(I15
I143
tp655
a(I143
I79
tp656
a(I79
I207
tp657
a(I207
I47
tp658
a(I47
I175
tp659
a(I175
I111
tp660
a(I111
I239
tp661
a(I239
I16
tp662
a(I16
I144
tp663
a(I144
I80
tp664
a(I80
I208
tp665
a(I208
I48
tp666
a(I48
I176
tp667
a(I176
I112
tp668
a(I112
I240
tp669
a(I240
I17
tp670
a(I17
I145
tp671
a(I145
I81
tp672
a(I81
I209
tp673
a(I209
I49
tp674
a(I49
I177
tp675
a(I177
I113
tp676
a(I113
I241
tp677
a(I241
I18
tp678
a(I18
I146
tp679
a(I146
I82
tp680
a(I82
I210
tp681
a(I210
I50
tp682
a(I50
I178
tp683
a(I178
I114
tp684
a(I114
I242
tp685
a(I242
I19
tp686
a(I19
I147
tp687
a(I147
I83
tp688
a(I83
I211
tp689
a(I211
I51
tp690
a(I51
I179
tp691
a(I179
I115
tp692
a(I115
I243
tp693
a(I243
I20
tp694
a(I20
I148
tp695
a(I148
I84
tp696
a(I84
I212
tp697
a(I212
I52
tp698
a(I52
I180
tp699
a(I180
I116
tp700
a(I116
I244
tp701
a(I244
I21
tp702
a(I21
I149
tp703
a(I149
I85
tp704
a(I85
I213
tp705
a(I213
I53
tp706
a(I53
I181
tp707
a(I181
I117
tp708
a(I117
I245
tp709
a(I245
I22
tp710
a(I22
I150
tp711
a(I150
I86
tp712
a(I86
I214
tp713
a(I214
I54
tp714
a(I54
I182
tp715
a(I182
I118
tp716
a(I118
I246
tp717
a(I246
I23
tp718
a(I23
I151
tp719
a(I151
I87
tp720
a(I87
I215
tp721
a(I215
I55
tp722
a(I55
I183
tp723
a(I183
I119
tp724
a(I119
I247
tp725
a(I247
I24
tp726
a(I24
I152
tp727
a(I152
I88
tp728
a(I88
I216
tp729
a(I216
I56
tp730
a(I56
I184
tp731
a(I184
I120
tp732
a(I120
I248
tp733
a(I248
I25
tp734
a(I25
I153
tp735
a(I153
I89
tp736
a(I89
I217
tp737
a(I217
I57
tp738
a(I57
I185
tp739
a(I185
I121
tp740
a(I121
I249
tp741
a(I249
I26
tp742
a(I26
I154
tp743
a(I154
I90
tp744
a(I90
I218
tp745
a(I218
I58
tp746
a(I58
I186
tp747
a(I186
I122
tp748
a(I122
I250
tp749
a(I250
I27
tp750
a(I27
I155
tp751
a(I155
I91
tp752
a(I91
I219
tp753
a(I219
I59
tp754
a(I59
I187
tp755
a(I187
I123
tp756
a(I123
I251
tp757
a(I251
I28
tp758
a(I28
I156
tp759
a(I156
I92
tp760
a(I92
I220
tp761
a(I220
I60
tp762
a(I60
I188
tp763
a(I188
I124
tp764
a(I124
I252
tp765
a(I252
I29
tp766
a(I29
I157
tp767
a(I157
I93
tp768
a(I93
I221
tp769
a(I221
I61
tp770
a(I61
I189
tp771
a(I189
I125
tp772
a(I125
I253
tp773
a(I253
I30
tp774
a(I30
I158
tp775
a(I158
I94
tp776
a(I94
I222
tp777
a(I222
I62
tp778
a(I62
I190
tp779
a(I190
I126
tp780
a(I126
I254
tp781
a(I254
I31
tp782
a(I31
I159
tp783
a(I159
I95
tp784
a(I95
I223
tp785
a(I223
I63
tp786
a(I63
I191
tp787
a(I191
I127
tp788
a(I127
I255
tp789
a(I255
I32
tp790
a(I32
I160
tp791
a(I160
I96
tp792
a(I96
I224
tp793
a(I224
I64
tp794
a(I64
I192
tp795
a(I192
I128
tp796
a(I128
I256
tp797
asg25
(dp798
sg27
(dp799
sg29
(lp800
I1
aI2
aI3
aI4
aI5
aI6
aI7
aI8
aI9
aI10
aI11
aI12
aI13
aI14
aI15
aI16
aI17
aI18
aI19
aI20
aI21
aI22
aI23
aI24
aI25
aI26
aI27
aI28
aI29
aI30
aI31
aI32
aI33
aI34
aI35
aI36
aI37
aI38
aI39
aI40
aI41
aI42
aI43
aI44
aI45
aI46
aI47
aI48
aI49
aI50
aI51
aI52
aI53
aI54
aI55
aI56
aI57
aI58
aI59
aI60
aI61
aI62
aI63
aI64
aI65
aI66
aI67
aI68
aI69
aI70
aI71
aI72
aI73
aI74
aI75
aI76
aI77
aI78
aI79
aI80
aI81
aI82
aI83
aI84
aI85
aI86
aI87
aI88
aI89
aI90
aI91
aI92
aI93
aI94
aI95
aI96
aI97
aI98
aI99
aI100
aI101
aI102
aI103
aI104
aI105
aI106
aI107
aI108
aI109
aI110
aI111
aI112
aI113
aI114
aI115
aI116
aI117
aI118
aI119
aI120
aI121
aI122
aI123
aI124
aI125
aI126
aI127
aI128
aI129
aI130
aI131
aI132
aI133
aI134
aI135
aI136
aI137
aI138
aI139
aI140
aI141
aI142
aI143
aI144
aI145
aI146
aI147
aI148
aI149
aI150
aI151
aI152
aI153
aI154
aI155
aI156
aI157
aI158
aI159
aI160
aI161
aI162
aI163
aI164
aI165
aI166
aI167
aI168
aI169
aI170
aI171
aI172
aI173
aI174
aI175
aI176
aI177
aI178
aI179
aI180
aI181
aI182
aI183
aI184
aI185
aI186
aI187
aI188
aI189
aI190
aI191
aI192
aI193
aI194
aI195
aI196
aI197
aI198
aI199
aI200
aI201
aI202
aI203
aI204
aI205
aI206
aI207
aI208
aI209
aI210
aI211
aI212
aI213
aI214
aI215
aI216
aI217
aI218
aI219
aI220
aI221
aI222
aI223
aI224
aI225
aI226
aI227
aI228
aI229
aI230
aI231
aI232
aI233
aI234
aI235
aI236
aI237
aI238
aI239
aI240
aI241
aI242
aI243
aI244
aI245
aI246
aI247
aI248
aI249
aI250
aI251
aI252
aI253
aI254
aI255
aI256
asg31
(lp801
(I1
I2
tp802
a(I2
I3
tp803
a(I3
I4
tp804
a(I4
I5
tp805
a(I5
I6
tp806
a(I6
I7
tp807
a(I7
I8
tp808
a(I8
I9
tp809
a(I9
I10
tp810
a(I10
I11
tp811
a(I11
I12
tp812
a(I12
I13
tp813
a(I13
I14
tp814
a(I14
I15
tp815
a(I15
I16
tp816
a(I16
I17
tp817
a(I17
I18
tp818
a(I18
I19
tp819
a(I19
I20
tp820
a(I20
I21
tp821
a(I21
I22
tp822
a(I22
I23
tp823
a(I23
I24
tp824
a(I24
I25
tp825
a(I25
I26
tp826
a(I26
I27
tp827
a(I27
I28
tp828
a(I28
I29
tp829
a(I29
I30
tp830
a(I30
I31
tp831
a(I31
I32
tp832
a(I32
I33
tp833
a(I33
I34
tp834
a(I34
I35
tp835
a(I35
I36
tp836
a(I36
I37
tp837
a(I37
I38
tp838
a(I38
I39
tp839
a(I39
I40
tp840
a(I40
I41
tp841
a(I41
I42
tp842
a(I42
I43
tp843
a(I43
I44
tp844
a(I44
I45
tp845
a(I45
I46
tp846
a(I46
I47
tp847
a(I47
I48
tp848
a(I48
I49
tp849
a(I49
I50
tp850
a(I50
I51
tp851
a(I51
I52
tp852
a(I52
I53
tp853
a(I53
I54
tp854
a(I54
I55
tp855
a(I55
I56
tp856
a(I56
I57
tp857
a(I57
I58
tp858
a(I58
I59
tp859
a(I59
I60
tp860
a(I60
I61
tp861
a(I61
I62
tp862
a(I62
I63
tp863
a(I63
I64
tp864
a(I64
I65
tp865
a(I65
I66
tp866
a(I66
I67
tp867
a(I67
I68
tp868
a(I68
I69
tp869
a(I69
I70
tp870
a(I70
I71
tp871
a(I71
I72
tp872
a(I72
I73
tp873
a(I73
I74
tp874
a(I74
I75
tp875
a(I75
I76
tp876
a(I76
I77
tp877
a(I77
I78
tp878
a(I78
I79
tp879
a(I79
I80
tp880
a(I80
I81
tp881
a(I81
I82
tp882
a(I82
I83
tp883
a(I83
I84
tp884
a(I84
I85
tp885
a(I85
I86
tp886
a(I86
I87
tp887
a(I87
I88
tp888
a(I88
I89
tp889
a(I89
I90
tp890
a(I90
I91
tp891
a(I91
I92
tp892
a(I92
I93
tp893
a(I93
I94
tp894
a(I94
I95
tp895
a(I95
I96
tp896
a(I96
I97
tp897
a(I97
I98
tp898
a(I98
I99
tp899
a(I99
I100
tp900
a(I100
I101
tp901
a(I101
I102
tp902
a(I102
I103
tp903
a(I103
I104
tp904
a(I104
I105
tp905
a(I105
I106
tp906
a(I106
I107
tp907
a(I107
I108
tp908
a(I108
I109
tp909
a(I109
I110
tp910
a(I110
I111
tp911
a(I111
I112
tp912
a(I112
I113
tp913
a(I113
I114
tp914
a(I114
I115
tp915
a(I115
I116
tp916
a(I116
I117
tp917
a(I117
I118
tp918
a(I118
I119
tp919
a(I119
I120
tp920
a(I120
I121
tp921
a(I121
I122
tp922
a(I122
I123
tp923
a(I123
I124
tp924
a(I124
I125
tp925
a(I125
I126
tp926
a(I126
I127
tp927
a(I127
I128
tp928
a(I128
I129
tp929
a(I129
I130
tp930
a(I130
I131
tp931
a(I131
I132
tp932
a(I132
I133
tp933
a(I133
I134
tp934
a(I134
I135
tp935
a(I135
I136
tp936
a(I136
I137
tp937
a(I137
I138
tp938
a(I138
I139
tp939
a(I139
I140
tp940
a(I140
I141
tp941
a(I141
I142
tp942
a(I142
I143
tp943
a(I143
I144
tp944
a(I144
I145
tp945
a(I145
I146
tp946
a(I146
I147
tp947
a(I147
I148
tp948
a(I148
I149
tp949
a(I149
I150
tp950
a(I150
I151
tp951
a(I151
I152
tp952
a(I152
I153
tp953
a(I153
I154
tp954
a(I154
I155
tp955
a(I155
I156
tp956
a(I156
I157
tp957
a(I157
I158
tp958
a(I158
I159
tp959
a(I159
I160
tp960
a(I160
I161
tp961
a(I161
I162
tp962
a(I162
I163
tp963
a(I163
I164
tp964
a(I164
I165
tp965
a(I165
I166
tp966
a(I166
I167
tp967
a(I167
I168
tp968
a(I168
I169
tp969
a(I169
I170
tp970
a(I170
I171
tp971
a(I171
I172
tp972
a(I172
I173
tp973
a(I173
I174
tp974
a(I174
I175
tp975
a(I175
I176
tp976
a(I176
I177
tp977
a(I177
I178
tp978
a(I178
I179
tp979
a(I179
I180
tp980
a(I180
I181
tp981
a(I181
I182
tp982
a(I182
I183
tp983
a(I183
I184
tp984
a(I184
I185
tp985
a(I185
I186
tp986
a(I186
I187
tp987
a(I187
I188
tp988
a(I188
I189
tp989
a(I189
I190
tp990
a(I190
I191
tp991
a(I191
I192
tp992
a(I192
I193
tp993
a(I193
I194
tp994
a(I194
I195
tp995
a(I195
I196
tp996
a(I196
I197
tp997
a(I197
I198
tp998
a(I198
I199
tp999
a(I199
I200
tp1000
a(I200
I201
tp1001
a(I201
I202
tp1002
a(I202
I203
tp1003
a(I203
I204
tp1004
a(I204
I205
tp1005
a(I205
I206
tp1006
a(I206
I207
tp1007
a(I207
I208
tp1008
a(I208
I209
tp1009
a(I209
I210
tp1010
a(I210
I211
tp1011
a(I211
I212
tp1012
a(I212
I213
tp1013
a(I213
I214
tp1014
a(I214
I215
tp1015
a(I215
I216
tp1016
a(I216
I217
tp1017
a(I217
I218
tp1018
a(I218
I219
tp1019
a(I219
I220
tp1020
a(I220
I221
tp1021
a(I221
I222
tp1022
a(I222
I223
tp1023
a(I223
I224
tp1024
a(I224
I225
tp1025
a(I225
I226
tp1026
a(I226
I227
tp1027
a(I227
I228
tp1028
a(I228
I229
tp1029
a(I229
I230
tp1030
a(I230
I231
tp1031
a(I231
I232
tp1032
a(I232
I233
tp1033
a(I233
I234
tp1034
a(I234
I235
tp1035
a(I235
I236
tp1036
a(I236
I237
tp1037
a(I237
I238
tp1038
a(I238
I239
tp1039
a(I239
I240
tp1040
a(I240
I241
tp1041
a(I241
I242
tp1042
a(I242
I243
tp1043
a(I243
I244
tp1044
a(I244
I245
tp1045
a(I245
I246
tp1046
a(I246
I247
tp1047
a(I247
I248
tp1048
a(I248
I249
tp1049
a(I249
I250
tp1050
a(I250
I251
tp1051
a(I251
I252
tp1052
a(I252
I253
tp1053
a(I253
I254
tp1054
a(I254
I255
tp1055
a(I255
I256
tp1056
asbsI6
g1
(g8
g3
NtRp1057
(dp1058
g11
I512
sg12
I512
sg13
I56
sg14
I1
sg15
I0
sg16
(lp1059
(I1
I257
tp1060
a(I257
I129
tp1061
a(I129
I385
tp1062
a(I385
I65
tp1063
a(I65
I321
tp1064
a(I321
I193
tp1065
a(I193
I449
tp1066
a(I449
I2
tp1067
a(I2
I258
tp1068
a(I258
I130
tp1069
a(I130
I386
tp1070
a(I386
I66
tp1071
a(I66
I322
tp1072
a(I322
I194
tp1073
a(I194
I450
tp1074
a(I450
I3
tp1075
a(I3
I259
tp1076
a(I259
I131
tp1077
a(I131
I387
tp1078
a(I387
I67
tp1079
a(I67
I323
tp1080
a(I323
I195
tp1081
a(I195
I451
tp1082
a(I451
I4
tp1083
a(I4
I260
tp1084
a(I260
I132
tp1085
a(I132
I388
tp1086
a(I388
I68
tp1087
a(I68
I324
tp1088
a(I324
I196
tp1089
a(I196
I452
tp1090
a(I452
I5
tp1091
a(I5
I261
tp1092
a(I261
I133
tp1093
a(I133
I389
tp1094
a(I389
I69
tp1095
a(I69
I325
tp1096
a(I325
I197
tp1097
a(I197
I453
tp1098
a(I453
I6
tp1099
a(I6
I262
tp1100
a(I262
I134
tp1101
a(I134
I390
tp1102
a(I390
I70
tp1103
a(I70
I326
tp1104
a(I326
I198
tp1105
a(I198
I454
tp1106
a(I454
I7
tp1107
a(I7
I263
tp1108
a(I263
I135
tp1109
a(I135
I391
tp1110
a(I391
I71
tp1111
a(I71
I327
tp1112
a(I327
I199
tp1113
a(I199
I455
tp1114
a(I455
I8
tp1115
a(I8
I264
tp1116
a(I264
I136
tp1117
a(I136
I392
tp1118
a(I392
I72
tp1119
a(I72
I328
tp1120
a(I328
I200
tp1121
a(I200
I456
tp1122
a(I456
I9
tp1123
a(I9
I265
tp1124
a(I265
I137
tp1125
a(I137
I393
tp1126
a(I393
I73
tp1127
a(I73
I329
tp1128
a(I329
I201
tp1129
a(I201
I457
tp1130
a(I457
I10
tp1131
a(I10
I266
tp1132
a(I266
I138
tp1133
a(I138
I394
tp1134
a(I394
I74
tp1135
a(I74
I330
tp1136
a(I330
I202
tp1137
a(I202
I458
tp1138
a(I458
I11
tp1139
a(I11
I267
tp1140
a(I267
I139
tp1141
a(I139
I395
tp1142
a(I395
I75
tp1143
a(I75
I331
tp1144
a(I331
I203
tp1145
a(I203
I459
tp1146
a(I459
I12
tp1147
a(I12
I268
tp1148
a(I268
I140
tp1149
a(I140
I396
tp1150
a(I396
I76
tp1151
a(I76
I332
tp1152
a(I332
I204
tp1153
a(I204
I460
tp1154
a(I460
I13
tp1155
a(I13
I269
tp1156
a(I269
I141
tp1157
a(I141
I397
tp1158
a(I397
I77
tp1159
a(I77
I333
tp1160
a(I333
I205
tp1161
a(I205
I461
tp1162
a(I461
I14
tp1163
a(I14
I270
tp1164
a(I270
I142
tp1165
a(I142
I398
tp1166
a(I398
I78
tp1167
a(I78
I334
tp1168
a(I334
I206
tp1169
a(I206
I462
tp1170
a(I462
I15
tp1171
a(I15
I271
tp1172
a(I271
I143
tp1173
a(I143
I399
tp1174
a(I399
I79
tp1175
a(I79
I335
tp1176
a(I335
I207
tp1177
a(I207
I463
tp1178
a(I463
I16
tp1179
a(I16
I272
tp1180
a(I272
I144
tp1181
a(I144
I400
tp1182
a(I400
I80
tp1183
a(I80
I336
tp1184
a(I336
I208
tp1185
a(I208
I464
tp1186
a(I464
I17
tp1187
a(I17
I273
tp1188
a(I273
I145
tp1189
a(I145
I401
tp1190
a(I401
I81
tp1191
a(I81
I337
tp1192
a(I337
I209
tp1193
a(I209
I465
tp1194
a(I465
I18
tp1195
a(I18
I274
tp1196
a(I274
I146
tp1197
a(I146
I402
tp1198
a(I402
I82
tp1199
a(I82
I338
tp1200
a(I338
I210
tp1201
a(I210
I466
tp1202
a(I466
I19
tp1203
a(I19
I275
tp1204
a(I275
I147
tp1205
a(I147
I403
tp1206
a(I403
I83
tp1207
a(I83
I339
tp1208
a(I339
I211
tp1209
a(I211
I467
tp1210
a(I467
I20
tp1211
a(I20
I276
tp1212
a(I276
I148
tp1213
a(I148
I404
tp1214
a(I404
I84
tp1215
a(I84
I340
tp1216
a(I340
I212
tp1217
a(I212
I468
tp1218
a(I468
I21
tp1219
a(I21
I277
tp1220
a(I277
I149
tp1221
a(I149
I405
tp1222
a(I405
I85
tp1223
a(I85
I341
tp1224
a(I341
I213
tp1225
a(I213
I469
tp1226
a(I469
I22
tp1227
a(I22
I278
tp1228
a(I278
I150
tp1229
a(I150
I406
tp1230
a(I406
I86
tp1231
a(I86
I342
tp1232
a(I342
I214
tp1233
a(I214
I470
tp1234
a(I470
I23
tp1235
a(I23
I279
tp1236
a(I279
I151
tp1237
a(I151
I407
tp1238
a(I407
I87
tp1239
a(I87
I343
tp1240
a(I343
I215
tp1241
a(I215
I471
tp1242
a(I471
I24
tp1243
a(I24
I280
tp1244
a(I280
I152
tp1245
a(I152
I408
tp1246
a(I408
I88
tp1247
a(I88
I344
tp1248
a(I344
I216
tp1249
a(I216
I472
tp1250
a(I472
I25
tp1251
a(I25
I281
tp1252
a(I281
I153
tp1253
a(I153
I409
tp1254
a(I409
I89
tp1255
a(I89
I345
tp1256
a(I345
I217
tp1257
a(I217
I473
tp1258
a(I473
I26
tp1259
a(I26
I282
tp1260
a(I282
I154
tp1261
a(I154
I410
tp1262
a(I410
I90
tp1263
a(I90
I346
tp1264
a(I346
I218
tp1265
a(I218
I474
tp1266
a(I474
I27
tp1267
a(I27
I283
tp1268
a(I283
I155
tp1269
a(I155
I411
tp1270
a(I411
I91
tp1271
a(I91
I347
tp1272
a(I347
I219
tp1273
a(I219
I475
tp1274
a(I475
I28
tp1275
a(I28
I284
tp1276
a(I284
I156
tp1277
a(I156
I412
tp1278
a(I412
I92
tp1279
a(I92
I348
tp1280
a(I348
I220
tp1281
a(I220
I476
tp1282
a(I476
I29
tp1283
a(I29
I285
tp1284
a(I285
I157
tp1285
a(I157
I413
tp1286
a(I413
I93
tp1287
a(I93
I349
tp1288
a(I349
I221
tp1289
a(I221
I477
tp1290
a(I477
I30
tp1291
a(I30
I286
tp1292
a(I286
I158
tp1293
a(I158
I414
tp1294
a(I414
I94
tp1295
a(I94
I350
tp1296
a(I350
I222
tp1297
a(I222
I478
tp1298
a(I478
I31
tp1299
a(I31
I287
tp1300
a(I287
I159
tp1301
a(I159
I415
tp1302
a(I415
I95
tp1303
a(I95
I351
tp1304
a(I351
I223
tp1305
a(I223
I479
tp1306
a(I479
I32
tp1307
a(I32
I288
tp1308
a(I288
I160
tp1309
a(I160
I416
tp1310
a(I416
I96
tp1311
a(I96
I352
tp1312
a(I352
I224
tp1313
a(I224
I480
tp1314
a(I480
I33
tp1315
a(I33
I289
tp1316
a(I289
I161
tp1317
a(I161
I417
tp1318
a(I417
I97
tp1319
a(I97
I353
tp1320
a(I353
I225
tp1321
a(I225
I481
tp1322
a(I481
I34
tp1323
a(I34
I290
tp1324
a(I290
I162
tp1325
a(I162
I418
tp1326
a(I418
I98
tp1327
a(I98
I354
tp1328
a(I354
I226
tp1329
a(I226
I482
tp1330
a(I482
I35
tp1331
a(I35
I291
tp1332
a(I291
I163
tp1333
a(I163
I419
tp1334
a(I419
I99
tp1335
a(I99
I355
tp1336
a(I355
I227
tp1337
a(I227
I483
tp1338
a(I483
I36
tp1339
a(I36
I292
tp1340
a(I292
I164
tp1341
a(I164
I420
tp1342
a(I420
I100
tp1343
a(I100
I356
tp1344
a(I356
I228
tp1345
a(I228
I484
tp1346
a(I484
I37
tp1347
a(I37
I293
tp1348
a(I293
I165
tp1349
a(I165
I421
tp1350
a(I421
I101
tp1351
a(I101
I357
tp1352
a(I357
I229
tp1353
a(I229
I485
tp1354
a(I485
I38
tp1355
a(I38
I294
tp1356
a(I294
I166
tp1357
a(I166
I422
tp1358
a(I422
I102
tp1359
a(I102
I358
tp1360
a(I358
I230
tp1361
a(I230
I486
tp1362
a(I486
I39
tp1363
a(I39
I295
tp1364
a(I295
I167
tp1365
a(I167
I423
tp1366
a(I423
I103
tp1367
a(I103
I359
tp1368
a(I359
I231
tp1369
a(I231
I487
tp1370
a(I487
I40
tp1371
a(I40
I296
tp1372
a(I296
I168
tp1373
a(I168
I424
tp1374
a(I424
I104
tp1375
a(I104
I360
tp1376
a(I360
I232
tp1377
a(I232
I488
tp1378
a(I488
I41
tp1379
a(I41
I297
tp1380
a(I297
I169
tp1381
a(I169
I425
tp1382
a(I425
I105
tp1383
a(I105
I361
tp1384
a(I361
I233
tp1385
a(I233
I489
tp1386
a(I489
I42
tp1387
a(I42
I298
tp1388
a(I298
I170
tp1389
a(I170
I426
tp1390
a(I426
I106
tp1391
a(I106
I362
tp1392
a(I362
I234
tp1393
a(I234
I490
tp1394
a(I490
I43
tp1395
a(I43
I299
tp1396
a(I299
I171
tp1397
a(I171
I427
tp1398
a(I427
I107
tp1399
a(I107
I363
tp1400
a(I363
I235
tp1401
a(I235
I491
tp1402
a(I491
I44
tp1403
a(I44
I300
tp1404
a(I300
I172
tp1405
a(I172
I428
tp1406
a(I428
I108
tp1407
a(I108
I364
tp1408
a(I364
I236
tp1409
a(I236
I492
tp1410
a(I492
I45
tp1411
a(I45
I301
tp1412
a(I301
I173
tp1413
a(I173
I429
tp1414
a(I429
I109
tp1415
a(I109
I365
tp1416
a(I365
I237
tp1417
a(I237
I493
tp1418
a(I493
I46
tp1419
a(I46
I302
tp1420
a(I302
I174
tp1421
a(I174
I430
tp1422
a(I430
I110
tp1423
a(I110
I366
tp1424
a(I366
I238
tp1425
a(I238
I494
tp1426
a(I494
I47
tp1427
a(I47
I303
tp1428
a(I303
I175
tp1429
a(I175
I431
tp1430
a(I431
I111
tp1431
a(I111
I367
tp1432
a(I367
I239
tp1433
a(I239
I495
tp1434
a(I495
I48
tp1435
a(I48
I304
tp1436
a(I304
I176
tp1437
a(I176
I432
tp1438
a(I432
I112
tp1439
a(I112
I368
tp1440
a(I368
I240
tp1441
a(I240
I496
tp1442
a(I496
I49
tp1443
a(I49
I305
tp1444
a(I305
I177
tp1445
a(I177
I433
tp1446
a(I433
I113
tp1447
a(I113
I369
tp1448
a(I369
I241
tp1449
a(I241
I497
tp1450
a(I497
I50
tp1451
a(I50
I306
tp1452
a(I306
I178
tp1453
a(I178
I434
tp1454
a(I434
I114
tp1455
a(I114
I370
tp1456
a(I370
I242
tp1457
a(I242
I498
tp1458
a(I498
I51
tp1459
a(I51
I307
tp1460
a(I307
I179
tp1461
a(I179
I435
tp1462
a(I435
I115
tp1463
a(I115
I371
tp1464
a(I371
I243
tp1465
a(I243
I499
tp1466
a(I499
I52
tp1467
a(I52
I308
tp1468
a(I308
I180
tp1469
a(I180
I436
tp1470
a(I436
I116
tp1471
a(I116
I372
tp1472
a(I372
I244
tp1473
a(I244
I500
tp1474
a(I500
I53
tp1475
a(I53
I309
tp1476
a(I309
I181
tp1477
a(I181
I437
tp1478
a(I437
I117
tp1479
a(I117
I373
tp1480
a(I373
I245
tp1481
a(I245
I501
tp1482
a(I501
I54
tp1483
a(I54
I310
tp1484
a(I310
I182
tp1485
a(I182
I438
tp1486
a(I438
I118
tp1487
a(I118
I374
tp1488
a(I374
I246
tp1489
a(I246
I502
tp1490
a(I502
I55
tp1491
a(I55
I311
tp1492
a(I311
I183
tp1493
a(I183
I439
tp1494
a(I439
I119
tp1495
a(I119
I375
tp1496
a(I375
I247
tp1497
a(I247
I503
tp1498
a(I503
I56
tp1499
a(I56
I312
tp1500
a(I312
I184
tp1501
a(I184
I440
tp1502
a(I440
I120
tp1503
a(I120
I376
tp1504
a(I376
I248
tp1505
a(I248
I504
tp1506
a(I504
I57
tp1507
a(I57
I313
tp1508
a(I313
I185
tp1509
a(I185
I441
tp1510
a(I441
I121
tp1511
a(I121
I377
tp1512
a(I377
I249
tp1513
a(I249
I505
tp1514
a(I505
I58
tp1515
a(I58
I314
tp1516
a(I314
I186
tp1517
a(I186
I442
tp1518
a(I442
I122
tp1519
a(I122
I378
tp1520
a(I378
I250
tp1521
a(I250
I506
tp1522
a(I506
I59
tp1523
a(I59
I315
tp1524
a(I315
I187
tp1525
a(I187
I443
tp1526
a(I443
I123
tp1527
a(I123
I379
tp1528
a(I379
I251
tp1529
a(I251
I507
tp1530
a(I507
I60
tp1531
a(I60
I316
tp1532
a(I316
I188
tp1533
a(I188
I444
tp1534
a(I444
I124
tp1535
a(I124
I380
tp1536
a(I380
I252
tp1537
a(I252
I508
tp1538
a(I508
I61
tp1539
a(I61
I317
tp1540
a(I317
I189
tp1541
a(I189
I445
tp1542
a(I445
I125
tp1543
a(I125
I381
tp1544
a(I381
I253
tp1545
a(I253
I509
tp1546
a(I509
I62
tp1547
a(I62
I318
tp1548
a(I318
I190
tp1549
a(I190
I446
tp1550
a(I446
I126
tp1551
a(I126
I382
tp1552
a(I382
I254
tp1553
a(I254
I510
tp1554
a(I510
I63
tp1555
a(I63
I319
tp1556
a(I319
I191
tp1557
a(I191
I447
tp1558
a(I447
I127
tp1559
a(I127
I383
tp1560
a(I383
I255
tp1561
a(I255
I511
tp1562
a(I511
I64
tp1563
a(I64
I320
tp1564
a(I320
I192
tp1565
a(I192
I448
tp1566
a(I448
I128
tp1567
a(I128
I384
tp1568
a(I384
I256
tp1569
a(I256
I512
tp1570
asg25
(dp1571
sg27
(dp1572
sg29
(lp1573
I1
aI2
aI3
aI4
aI5
aI6
aI7
aI8
aI9
aI10
aI11
aI12
aI13
aI14
aI15
aI16
aI17
aI18
aI19
aI20
aI21
aI22
aI23
aI24
aI25
aI26
aI27
aI28
aI29
aI30
aI31
aI32
aI33
aI34
aI35
aI36
aI37
aI38
aI39
aI40
aI41
aI42
aI43
aI44
aI45
aI46
aI47
aI48
aI49
aI50
aI51
aI52
aI53
aI54
aI55
aI56
aI57
aI58
aI59
aI60
aI61
aI62
aI63
aI64
aI65
aI66
aI67
aI68
aI69
aI70
aI71
aI72
aI73
aI74
aI75
aI76
aI77
aI78
aI79
aI80
aI81
aI82
aI83
aI84
aI85
aI86
aI87
aI88
aI89
aI90
aI91
aI92
aI93
aI94
aI95
aI96
aI97
aI98
aI99
aI100
aI101
aI102
aI103
aI104
aI105
aI106
aI107
aI108
aI109
aI110
aI111
aI112
aI113
aI114
aI115
aI116
aI117
aI118
aI119
aI120
aI121
aI122
aI123
aI124
aI125
aI126
aI127
aI128
aI129
aI130
aI131
aI132
aI133
aI134
aI135
aI136
aI137
aI138
aI139
aI140
aI141
aI142
aI143
aI144
aI145
aI146
aI147
aI148
aI149
aI150
aI151
aI152
aI153
aI154
aI155
aI156
aI157
aI158
aI159
aI160
aI161
aI162
aI163
aI164
aI165
aI166
aI167
aI168
aI169
aI170
aI171
aI172
aI173
aI174
aI175
aI176
aI177
aI178
aI179
aI180
aI181
aI182
aI183
aI184
aI185
aI186
aI187
aI188
aI189
aI190
aI191
aI192
aI193
aI194
aI195
aI196
aI197
aI198
aI199
aI200
aI201
aI202
aI203
aI204
aI205
aI206
aI207
aI208
aI209
aI210
aI211
aI212
aI213
aI214
aI215
aI216
aI217
aI218
aI219
aI220
aI221
aI222
aI223
aI224
aI225
aI226
aI227
aI228
aI229
aI230
aI231
aI232
aI233
aI234
aI235
aI236
aI237
aI238
aI239
aI240
aI241
aI242
aI243
aI244
aI245
aI246
aI247
aI248
aI249
aI250
aI251
aI252
aI253
aI254
aI255
aI256
aI257
aI258
aI259
aI260
aI261
aI262
aI263
aI264
aI265
aI266
aI267
aI268
aI269
aI270
aI271
aI272
aI273
aI274
aI275
aI276
aI277
aI278
aI279
aI280
aI281
aI282
aI283
aI284
aI285
aI286
aI287
aI288
aI289
aI290
aI291
aI292
aI293
aI294
aI295
aI296
aI297
aI298
aI299
aI300
aI301
aI302
aI303
aI304
aI305
aI306
aI307
aI308
aI309
aI310
aI311
aI312
aI313
aI314
aI315
aI316
aI317
aI318
aI319
aI320
aI321
aI322
aI323
aI324
aI325
aI326
aI327
aI328
aI329
aI330
aI331
aI332
aI333
aI334
aI335
aI336
aI337
aI338
aI339
aI340
aI341
aI342
aI343
aI344
aI345
aI346
aI347
aI348
aI349
aI350
aI351
aI352
aI353
aI354
aI355
aI356
aI357
aI358
aI359
aI360
aI361
aI362
aI363
aI364
aI365
aI366
aI367
aI368
aI369
aI370
aI371
aI372
aI373
aI374
aI375
aI376
aI377
aI378
aI379
aI380
aI381
aI382
aI383
aI384
aI385
aI386
aI387
aI388
aI389
aI390
aI391
aI392
aI393
aI394
aI395
aI396
aI397
aI398
aI399
aI400
aI401
aI402
aI403
aI404
aI405
aI406
aI407
aI408
aI409
aI410
aI411
aI412
aI413
aI414
aI415
aI416
aI417
aI418
aI419
aI420
aI421
aI422
aI423
aI424
aI425
aI426
aI427
aI428
aI429
aI430
aI431
aI432
aI433
aI434
aI435
aI436
aI437
aI438
aI439
aI440
aI441
aI442
aI443
aI444
aI445
aI446
aI447
aI448
aI449
aI450
aI451
aI452
aI453
aI454
aI455
aI456
aI457
aI458
aI459
aI460
aI461
aI462
aI463
aI464
aI465
aI466
aI467
aI468
aI469
aI470
aI471
aI472
aI473
aI474
aI475
aI476
aI477
aI478
aI479
aI480
aI481
aI482
aI483
aI484
aI485
aI486
aI487
aI488
aI489
aI490
aI491
aI492
aI493
aI494
aI495
aI496
aI497
aI498
aI499
aI500
aI501
aI502
aI503
aI504
aI505
aI506
aI507
aI508
aI509
aI510
aI511
aI512
asg31
(lp1574
(I1
I2
tp1575
a(I2
I3
tp1576
a(I3
I4
tp1577
a(I4
I5
tp1578
a(I5
I6
tp1579
a(I6
I7
tp1580
a(I7
I8
tp1581
a(I8
I9
tp1582
a(I9
I10
tp1583
a(I10
I11
tp1584
a(I11
I12
tp1585
a(I12
I13
tp1586
a(I13
I14
tp1587
a(I14
I15
tp1588
a(I15
I16
tp1589
a(I16
I17
tp1590
a(I17
I18
tp1591
a(I18
I19
tp1592
a(I19
I20
tp1593
a(I20
I21
tp1594
a(I21
I22
tp1595
a(I22
I23
tp1596
a(I23
I24
tp1597
a(I24
I25
tp1598
a(I25
I26
tp1599
a(I26
I27
tp1600
a(I27
I28
tp1601
a(I28
I29
tp1602
a(I29
I30
tp1603
a(I30
I31
tp1604
a(I31
I32
tp1605
a(I32
I33
tp1606
a(I33
I34
tp1607
a(I34
I35
tp1608
a(I35
I36
tp1609
a(I36
I37
tp1610
a(I37
I38
tp1611
a(I38
I39
tp1612
a(I39
I40
tp1613
a(I40
I41
tp1614
a(I41
I42
tp1615
a(I42
I43
tp1616
a(I43
I44
tp1617
a(I44
I45
tp1618
a(I45
I46
tp1619
a(I46
I47
tp1620
a(I47
I48
tp1621
a(I48
I49
tp1622
a(I49
I50
tp1623
a(I50
I51
tp1624
a(I51
I52
tp1625
a(I52
I53
tp1626
a(I53
I54
tp1627
a(I54
I55
tp1628
a(I55
I56
tp1629
a(I56
I57
tp1630
a(I57
I58
tp1631
a(I58
I59
tp1632
a(I59
I60
tp1633
a(I60
I61
tp1634
a(I61
I62
tp1635
a(I62
I63
tp1636
a(I63
I64
tp1637
a(I64
I65
tp1638
a(I65
I66
tp1639
a(I66
I67
tp1640
a(I67
I68
tp1641
a(I68
I69
tp1642
a(I69
I70
tp1643
a(I70
I71
tp1644
a(I71
I72
tp1645
a(I72
I73
tp1646
a(I73
I74
tp1647
a(I74
I75
tp1648
a(I75
I76
tp1649
a(I76
I77
tp1650
a(I77
I78
tp1651
a(I78
I79
tp1652
a(I79
I80
tp1653
a(I80
I81
tp1654
a(I81
I82
tp1655
a(I82
I83
tp1656
a(I83
I84
tp1657
a(I84
I85
tp1658
a(I85
I86
tp1659
a(I86
I87
tp1660
a(I87
I88
tp1661
a(I88
I89
tp1662
a(I89
I90
tp1663
a(I90
I91
tp1664
a(I91
I92
tp1665
a(I92
I93
tp1666
a(I93
I94
tp1667
a(I94
I95
tp1668
a(I95
I96
tp1669
a(I96
I97
tp1670
a(I97
I98
tp1671
a(I98
I99
tp1672
a(I99
I100
tp1673
a(I100
I101
tp1674
a(I101
I102
tp1675
a(I102
I103
tp1676
a(I103
I104
tp1677
a(I104
I105
tp1678
a(I105
I106
tp1679
a(I106
I107
tp1680
a(I107
I108
tp1681
a(I108
I109
tp1682
a(I109
I110
tp1683
a(I110
I111
tp1684
a(I111
I112
tp1685
a(I112
I113
tp1686
a(I113
I114
tp1687
a(I114
I115
tp1688
a(I115
I116
tp1689
a(I116
I117
tp1690
a(I117
I118
tp1691
a(I118
I119
tp1692
a(I119
I120
tp1693
a(I120
I121
tp1694
a(I121
I122
tp1695
a(I122
I123
tp1696
a(I123
I124
tp1697
a(I124
I125
tp1698
a(I125
I126
tp1699
a(I126
I127
tp1700
a(I127
I128
tp1701
a(I128
I129
tp1702
a(I129
I130
tp1703
a(I130
I131
tp1704
a(I131
I132
tp1705
a(I132
I133
tp1706
a(I133
I134
tp1707
a(I134
I135
tp1708
a(I135
I136
tp1709
a(I136
I137
tp1710
a(I137
I138
tp1711
a(I138
I139
tp1712
a(I139
I140
tp1713
a(I140
I141
tp1714
a(I141
I142
tp1715
a(I142
I143
tp1716
a(I143
I144
tp1717
a(I144
I145
tp1718
a(I145
I146
tp1719
a(I146
I147
tp1720
a(I147
I148
tp1721
a(I148
I149
tp1722
a(I149
I150
tp1723
a(I150
I151
tp1724
a(I151
I152
tp1725
a(I152
I153
tp1726
a(I153
I154
tp1727
a(I154
I155
tp1728
a(I155
I156
tp1729
a(I156
I157
tp1730
a(I157
I158
tp1731
a(I158
I159
tp1732
a(I159
I160
tp1733
a(I160
I161
tp1734
a(I161
I162
tp1735
a(I162
I163
tp1736
a(I163
I164
tp1737
a(I164
I165
tp1738
a(I165
I166
tp1739
a(I166
I167
tp1740
a(I167
I168
tp1741
a(I168
I169
tp1742
a(I169
I170
tp1743
a(I170
I171
tp1744
a(I171
I172
tp1745
a(I172
I173
tp1746
a(I173
I174
tp1747
a(I174
I175
tp1748
a(I175
I176
tp1749
a(I176
I177
tp1750
a(I177
I178
tp1751
a(I178
I179
tp1752
a(I179
I180
tp1753
a(I180
I181
tp1754
a(I181
I182
tp1755
a(I182
I183
tp1756
a(I183
I184
tp1757
a(I184
I185
tp1758
a(I185
I186
tp1759
a(I186
I187
tp1760
a(I187
I188
tp1761
a(I188
I189
tp1762
a(I189
I190
tp1763
a(I190
I191
tp1764
a(I191
I192
tp1765
a(I192
I193
tp1766
a(I193
I194
tp1767
a(I194
I195
tp1768
a(I195
I196
tp1769
a(I196
I197
tp1770
a(I197
I198
tp1771
a(I198
I199
tp1772
a(I199
I200
tp1773
a(I200
I201
tp1774
a(I201
I202
tp1775
a(I202
I203
tp1776
a(I203
I204
tp1777
a(I204
I205
tp1778
a(I205
I206
tp1779
a(I206
I207
tp1780
a(I207
I208
tp1781
a(I208
I209
tp1782
a(I209
I210
tp1783
a(I210
I211
tp1784
a(I211
I212
tp1785
a(I212
I213
tp1786
a(I213
I214
tp1787
a(I214
I215
tp1788
a(I215
I216
tp1789
a(I216
I217
tp1790
a(I217
I218
tp1791
a(I218
I219
tp1792
a(I219
I220
tp1793
a(I220
I221
tp1794
a(I221
I222
tp1795
a(I222
I223
tp1796
a(I223
I224
tp1797
a(I224
I225
tp1798
a(I225
I226
tp1799
a(I226
I227
tp1800
a(I227
I228
tp1801
a(I228
I229
tp1802
a(I229
I230
tp1803
a(I230
I231
tp1804
a(I231
I232
tp1805
a(I232
I233
tp1806
a(I233
I234
tp1807
a(I234
I235
tp1808
a(I235
I236
tp1809
a(I236
I237
tp1810
a(I237
I238
tp1811
a(I238
I239
tp1812
a(I239
I240
tp1813
a(I240
I241
tp1814
a(I241
I242
tp1815
a(I242
I243
tp1816
a(I243
I244
tp1817
a(I244
I245
tp1818
a(I245
I246
tp1819
a(I246
I247
tp1820
a(I247
I248
tp1821
a(I248
I249
tp1822
a(I249
I250
tp1823
a(I250
I251
tp1824
a(I251
I252
tp1825
a(I252
I253
tp1826
a(I253
I254
tp1827
a(I254
I255
tp1828
a(I255
I256
tp1829
a(I256
I257
tp1830
a(I257
I258
tp1831
a(I258
I259
tp1832
a(I259
I260
tp1833
a(I260
I261
tp1834
a(I261
I262
tp1835
a(I262
I263
tp1836
a(I263
I264
tp1837
a(I264
I265
tp1838
a(I265
I266
tp1839
a(I266
I267
tp1840
a(I267
I268
tp1841
a(I268
I269
tp1842
a(I269
I270
tp1843
a(I270
I271
tp1844
a(I271
I272
tp1845
a(I272
I273
tp1846
a(I273
I274
tp1847
a(I274
I275
tp1848
a(I275
I276
tp1849
a(I276
I277
tp1850
a(I277
I278
tp1851
a(I278
I279
tp1852
a(I279
I280
tp1853
a(I280
I281
tp1854
a(I281
I282
tp1855
a(I282
I283
tp1856
a(I283
I284
tp1857
a(I284
I285
tp1858
a(I285
I286
tp1859
a(I286
I287
tp1860
a(I287
I288
tp1861
a(I288
I289
tp1862
a(I289
I290
tp1863
a(I290
I291
tp1864
a(I291
I292
tp1865
a(I292
I293
tp1866
a(I293
I294
tp1867
a(I294
I295
tp1868
a(I295
I296
tp1869
a(I296
I297
tp1870
a(I297
I298
tp1871
a(I298
I299
tp1872
a(I299
I300
tp1873
a(I300
I301
tp1874
a(I301
I302
tp1875
a(I302
I303
tp1876
a(I303
I304
tp1877
a(I304
I305
tp1878
a(I305
I306
tp1879
a(I306
I307
tp1880
a(I307
I308
tp1881
a(I308
I309
tp1882
a(I309
I310
tp1883
a(I310
I311
tp1884
a(I311
I312
tp1885
a(I312
I313
tp1886
a(I313
I314
tp1887
a(I314
I315
tp1888
a(I315
I316
tp1889
a(I316
I317
tp1890
a(I317
I318
tp1891
a(I318
I319
tp1892
a(I319
I320
tp1893
a(I320
I321
tp1894
a(I321
I322
tp1895
a(I322
I323
tp1896
a(I323
I324
tp1897
a(I324
I325
tp1898
a(I325
I326
tp1899
a(I326
I327
tp1900
a(I327
I328
tp1901
a(I328
I329
tp1902
a(I329
I330
tp1903
a(I330
I331
tp1904
a(I331
I332
tp1905
a(I332
I333
tp1906
a(I333
I334
tp1907
a(I334
I335
tp1908
a(I335
I336
tp1909
a(I336
I337
tp1910
a(I337
I338
tp1911
a(I338
I339
tp1912
a(I339
I340
tp1913
a(I340
I341
tp1914
a(I341
I342
tp1915
a(I342
I343
tp1916
a(I343
I344
tp1917
a(I344
I345
tp1918
a(I345
I346
tp1919
a(I346
I347
tp1920
a(I347
I348
tp1921
a(I348
I349
tp1922
a(I349
I350
tp1923
a(I350
I351
tp1924
a(I351
I352
tp1925
a(I352
I353
tp1926
a(I353
I354
tp1927
a(I354
I355
tp1928
a(I355
I356
tp1929
a(I356
I357
tp1930
a(I357
I358
tp1931
a(I358
I359
tp1932
a(I359
I360
tp1933
a(I360
I361
tp1934
a(I361
I362
tp1935
a(I362
I363
tp1936
a(I363
I364
tp1937
a(I364
I365
tp1938
a(I365
I366
tp1939
a(I366
I367
tp1940
a(I367
I368
tp1941
a(I368
I369
tp1942
a(I369
I370
tp1943
a(I370
I371
tp1944
a(I371
I372
tp1945
a(I372
I373
tp1946
a(I373
I374
tp1947
a(I374
I375
tp1948
a(I375
I376
tp1949
a(I376
I377
tp1950
a(I377
I378
tp1951
a(I378
I379
tp1952
a(I379
I380
tp1953
a(I380
I381
tp1954
a(I381
I382
tp1955
a(I382
I383
tp1956
a(I383
I384
tp1957
a(I384
I385
tp1958
a(I385
I386
tp1959
a(I386
I387
tp1960
a(I387
I388
tp1961
a(I388
I389
tp1962
a(I389
I390
tp1963
a(I390
I391
tp1964
a(I391
I392
tp1965
a(I392
I393
tp1966
a(I393
I394
tp1967
a(I394
I395
tp1968
a(I395
I396
tp1969
a(I396
I397
tp1970
a(I397
I398
tp1971
a(I398
I399
tp1972
a(I399
I400
tp1973
a(I400
I401
tp1974
a(I401
I402
tp1975
a(I402
I403
tp1976
a(I403
I404
tp1977
a(I404
I405
tp1978
a(I405
I406
tp1979
a(I406
I407
tp1980
a(I407
I408
tp1981
a(I408
I409
tp1982
a(I409
I410
tp1983
a(I410
I411
tp1984
a(I411
I412
tp1985
a(I412
I413
tp1986
a(I413
I414
tp1987
a(I414
I415
tp1988
a(I415
I416
tp1989
a(I416
I417
tp1990
a(I417
I418
tp1991
a(I418
I419
tp1992
a(I419
I420
tp1993
a(I420
I421
tp1994
a(I421
I422
tp1995
a(I422
I423
tp1996
a(I423
I424
tp1997
a(I424
I425
tp1998
a(I425
I426
tp1999
a(I426
I427
tp2000
a(I427
I428
tp2001
a(I428
I429
tp2002
a(I429
I430
tp2003
a(I430
I431
tp2004
a(I431
I432
tp2005
a(I432
I433
tp2006
a(I433
I434
tp2007
a(I434
I435
tp2008
a(I435
I436
tp2009
a(I436
I437
tp2010
a(I437
I438
tp2011
a(I438
I439
tp2012
a(I439
I440
tp2013
a(I440
I441
tp2014
a(I441
I442
tp2015
a(I442
I443
tp2016
a(I443
I444
tp2017
a(I444
I445
tp2018
a(I445
I446
tp2019
a(I446
I447
tp2020
a(I447
I448
tp2021
a(I448
I449
tp2022
a(I449
I450
tp2023
a(I450
I451
tp2024
a(I451
I452
tp2025
a(I452
I453
tp2026
a(I453
I454
tp2027
a(I454
I455
tp2028
a(I455
I456
tp2029
a(I456
I457
tp2030
a(I457
I458
tp2031
a(I458
I459
tp2032
a(I459
I460
tp2033
a(I460
I461
tp2034
a(I461
I462
tp2035
a(I462
I463
tp2036
a(I463
I464
tp2037
a(I464
I465
tp2038
a(I465
I466
tp2039
a(I466
I467
tp2040
a(I467
I468
tp2041
a(I468
I469
tp2042
a(I469
I470
tp2043
a(I470
I471
tp2044
a(I471
I472
tp2045
a(I472
I473
tp2046
a(I473
I474
tp2047
a(I474
I475
tp2048
a(I475
I476
tp2049
a(I476
I477
tp2050
a(I477
I478
tp2051
a(I478
I479
tp2052
a(I479
I480
tp2053
a(I480
I481
tp2054
a(I481
I482
tp2055
a(I482
I483
tp2056
a(I483
I484
tp2057
a(I484
I485
tp2058
a(I485
I486
tp2059
a(I486
I487
tp2060
a(I487
I488
tp2061
a(I488
I489
tp2062
a(I489
I490
tp2063
a(I490
I491
tp2064
a(I491
I492
tp2065
a(I492
I493
tp2066
a(I493
I494
tp2067
a(I494
I495
tp2068
a(I495
I496
tp2069
a(I496
I497
tp2070
a(I497
I498
tp2071
a(I498
I499
tp2072
a(I499
I500
tp2073
a(I500
I501
tp2074
a(I501
I502
tp2075
a(I502
I503
tp2076
a(I503
I504
tp2077
a(I504
I505
tp2078
a(I505
I506
tp2079
a(I506
I507
tp2080
a(I507
I508
tp2081
a(I508
I509
tp2082
a(I509
I510
tp2083
a(I510
I511
tp2084
a(I511
I512
tp2085
asbssS'contained_instances'
p2086
(lp2087
I0
aI1
aI2
aI3
aI4
aI5
aI6
asS'numeric_index_to_parameter'
p2088
(dp2089
I0
S'from_file'
p2090
sI1
g2090
sI2
g2090
sI3
g2090
sI4
g2090
sI5
g2090
sI6
g2090
ssS'random_instance'
p2091
crandom
Random
p2092
(tRp2093
(I3
(L2147483648L
L163610392L
L3414454684L
L213706556L
L4107842212L
L2345084137L
L1370141154L
L308032203L
L1333762497L
L62788148L
L3897778028L
L747877958L
L1467715487L
L3456091536L
L2761063683L
L1618744790L
L1478419815L
L1764113510L
L846282508L
L2723886408L
L4169581479L
L1502702845L
L2646586442L
L2469253028L
L2959591262L
L4098450497L
L884511481L
L335884721L
L3599209546L
L513139374L
L3325056467L
L728657986L
L4258769976L
L1345736399L
L2025918085L
L3316918730L
L2943630414L
L2227403036L
L2570027851L
L3647123330L
L1428539568L
L3871201705L
L1751794003L
L270064251L
L1795576567L
L1369598507L
L618682879L
L2451807245L
L529121120L
L3890334672L
L1711572734L
L3489061444L
L651351815L
L4134812839L
L69921281L
L166843555L
L3639104358L
L1220147039L
L1949863666L
L1735631448L
L1274775129L
L2568486724L
L1135749407L
L4184445328L
L1474571425L
L2839972547L
L1408182003L
L244421551L
L3350038055L
L1060682618L
L4280572247L
L1303862814L
L2374039070L
L2105482037L
L3963285136L
L1813783878L
L3843306449L
L1550621711L
L3201633678L
L3993032609L
L2696521485L
L1737817996L
L2171565928L
L2455244480L
L1159916282L
L512285753L
L3858590612L
L4026374369L
L1315072297L
L1616330716L
L2575452881L
L2244992328L
L3829642776L
L3110057432L
L2014659424L
L2754832975L
L325146004L
L2099885769L
L2020308731L
L1285440480L
L3077009376L
L2090384422L
L1391632928L
L3117180829L
L446498285L
L441350144L
L2181843108L
L2070907054L
L159173329L
L2146887474L
L2552448310L
L2804228090L
L1104855231L
L3423489232L
L571551281L
L2985027384L
L2539165306L
L297570257L
L2726511311L
L4153586362L
L2738372079L
L136762299L
L632694665L
L2321868360L
L405387135L
L3889854117L
L3664524696L
L2155352969L
L3438225114L
L1479423152L
L3490667914L
L1428754172L
L4202177206L
L3666900963L
L1589695458L
L1376009076L
L2045844259L
L2570438673L
L4062196720L
L2557681198L
L3588069788L
L3816335341L
L1913661670L
L2760431498L
L473535928L
L886428644L
L3042733200L
L3514611376L
L1727272720L
L1352272367L
L1182350217L
L2770160529L
L1408757716L
L1236436838L
L2638114048L
L2288958075L
L1907848138L
L2513183981L
L430007381L
L1410996817L
L2893861882L
L93734637L
L889812797L
L1746269177L
L2955589432L
L2154616085L
L2341907336L
L3667241034L
L3612199480L
L3276336868L
L2147135321L
L1218242541L
L4191308092L
L3390432817L
L3936122595L
L2082616352L
L2829353186L
L2952040553L
L713551976L
L2561783586L
L1479607462L
L3332321760L
L1309567703L
L22089850L
L2486755466L
L381044148L
L159099040L
L388730878L
L609513646L
L2552905871L
L3544022117L
L3805737844L
L2227334610L
L2494928250L
L3378607757L
L3524817012L
L2139887110L
L1238988590L
L1805829162L
L517563348L
L3523030613L
L2561647659L
L2457033094L
L110524459L
L3060194499L
L1371354234L
L3106249499L
L654135201L
L3060697207L
L1782090502L
L3493197751L
L2011962950L
L3463067072L
L2125293843L
L3618129160L
L264083333L
L1779954467L
L2211720346L
L4182937327L
L2941369992L
L3794523672L
L1330988599L
L234225856L
L90287582L
L2051877036L
L3960155203L
L2325302511L
L1243082884L
L2254641221L
L3139095438L
L2202182478L
L2713924425L
L891524757L
L4005270835L
L387403269L
L1030701411L
L2326221003L
L3972817848L
L37068874L
L4188732375L
L4170743689L
L1563571666L
L3264605422L
L1224007347L
L2388878847L
L2696076550L
L1160443253L
L3998214265L
L3911940885L
L309058713L
L1299838128L
L301738434L
L1868013930L
L2026352840L
L29203600L
L99450731L
L2742148479L
L1264016868L
L2461978269L
L3930600891L
L158658524L
L1095791153L
L431156709L
L1089146157L
L3086708774L
L3913479923L
L3488886065L
L662837957L
L512314933L
L2687580555L
L1640087888L
L1842891598L
L2484638237L
L1503175697L
L2919500073L
L935426647L
L3390674322L
L3710660216L
L3948785403L
L3859267761L
L886850881L
L3266066614L
L2405923502L
L1778892505L
L1078419801L
L1202668153L
L394351055L
L415838974L
L3983768587L
L825332883L
L3634217853L
L1472412051L
L1551030949L
L931843079L
L427180435L
L725935900L
L4262431060L
L939768058L
L1301081958L
L636087235L
L271721944L
L2204560285L
L2497269100L
L2473167459L
L21620607L
L3335975034L
L3517674840L
L3222417599L
L3447164101L
L1339565348L
L3349704368L
L3857516299L
L1095981426L
L544959111L
L234180808L
L2480014075L
L3949935942L
L1047216236L
L589300123L
L950190608L
L1291006957L
L424096100L
L1214133370L
L2491845264L
L1910609750L
L515729687L
L1468575130L
L3508223487L
L3358189942L
L3760910659L
L662492595L
L3290816602L
L1495146986L
L3554891657L
L2379549908L
L1284425649L
L3908438764L
L500208693L
L370734844L
L1862397830L
L2496258349L
L643941428L
L3847013908L
L430464089L
L757441939L
L4234893488L
L2402089443L
L3885899272L
L123955394L
L2911486454L
L3570245885L
L305823305L
L3521973682L
L1134143933L
L1822715901L
L3771209687L
L3765835594L
L503306148L
L2350585095L
L74213553L
L244012694L
L802358191L
L2625353188L
L2628956054L
L145736569L
L2172920852L
L1568086026L
L733619507L
L145496153L
L2787717823L
L880654765L
L1331585910L
L1509465018L
L2573573594L
L1824150333L
L1865181627L
L4223844607L
L2293788278L
L2772801702L
L3925583439L
L356447406L
L2275228672L
L1673212648L
L2042698565L
L551936189L
L3909795553L
L567834322L
L338699308L
L2642651442L
L3561630650L
L3766126637L
L274749558L
L223928195L
L3276818380L
L3595671621L
L1529598288L
L3512135371L
L990408170L
L2187846354L
L952429742L
L3852385894L
L1322368093L
L163246556L
L3259930194L
L3283300532L
L323737423L
L1292813868L
L3393309894L
L3713892438L
L1677062690L
L2298850951L
L1458909664L
L1403814726L
L2831530730L
L4228128557L
L3781052071L
L925731853L
L4201869440L
L875580200L
L1391612016L
L1456821743L
L1236774598L
L655110906L
L2237702866L
L2535339850L
L3500123217L
L1831097575L
L2339509975L
L3223214024L
L3242702888L
L3348863740L
L4116159753L
L2639186856L
L1354770100L
L117843731L
L1020244916L
L351111739L
L1986396569L
L424269361L
L2196821979L
L2537273993L
L1099950039L
L2929886044L
L2892244184L
L1264517853L
L203709692L
L2382681067L
L742099144L
L1432956886L
L1044385927L
L429332988L
L3613380401L
L49444759L
L756116338L
L1251280805L
L2433090297L
L780894170L
L323183842L
L1323214767L
L2433951660L
L2719446105L
L3017944748L
L2520180279L
L756337248L
L1982568823L
L2576088552L
L63554701L
L1246766315L
L308294942L
L1783051840L
L2559719156L
L2508295691L
L2220094509L
L1885560612L
L1389554963L
L2409332505L
L3551025026L
L935038925L
L2282550240L
L567151253L
L1056625473L
L1361090054L
L1830928174L
L1948837568L
L604804332L
L175213352L
L1616532552L
L2864856813L
L3664285213L
L1796704245L
L2207154019L
L1703148797L
L3029510914L
L3916216499L
L3046424967L
L2469057762L
L3688516508L
L4174594823L
L826735065L
L3609658778L
L2706825366L
L1721894425L
L4102204064L
L2372640683L
L873998586L
L4645688L
L342108091L
L1052229759L
L2885481328L
L3846566736L
L2725335273L
L3141905149L
L1944588128L
L3338309352L
L1217293365L
L758904441L
L908714149L
L1857017353L
L3158344528L
L407367111L
L1832778363L
L2870192017L
L195421260L
L2082695712L
L2299786895L
L3924633962L
L3816319308L
L4174469444L
L352017743L
L3919653893L
L3552084113L
L4084281710L
L217019257L
L2220897032L
L2831356070L
L517986126L
L2126042467L
L3500893938L
L486038748L
L282202472L
L62418345L
L4243706353L
L3034591456L
L2928836324L
L2433510828L
L1171220900L
L3151109281L
L4133436617L
L3496079655L
L889039997L
L3169404797L
L4218370257L
L3184524119L
L3222673742L
L955349275L
L2029908831L
L410243278L
L2276423897L
L4200509024L
L427092757L
L2393598070L
L1849682457L
L3026238934L
L2818453350L
L2830402705L
L910713912L
L1567238953L
L2857806016L
L4178086031L
L3618315352L
L2721672244L
L1362169819L
L2879403111L
L944177284L
L3409592433L
L3148312349L
L117073596L
L2159545286L
L667249336L
L442234702L
L1437245782L
L1195451558L
L3555215932L
L3898790982L
L2775911198L
L2796500044L
L4192572470L
L61910163L
L1144565006L
L1759081450L
L4217561358L
L3851781926L
L1895855845L
L2978681379L
L3636215304L
L1364798791L
L791350095L
L1253102225L
L2548766165L
L4180900150L
L1987462070L
L1190937574L
L312972162L
L1033899022L
L3652779080L
L1460108538L
L2200492031L
L2596682597L
L2194804720L
L1702535764L
L2371568706L
L3426924971L
L1084035508L
L1270666209L
L2966270095L
L3594748641L
L2314251442L
L662353580L
L4005784134L
L4037513750L
L2711695041L
L402334646L
L906313207L
L1781494222L
L624L
tNtbsS'seed'
p2094
I-1
sS'raw_instance_generation_parameters'
p2095
g2090
sS'number_of_instances'
p2096
I7
sS'identifier'
p2097
S'hard_instances_8_8192'
p2098
sb.