ccopy_reg
_reconstructor
p1
(cnetwork_update.datamodel
ExperimentStorage
p2
c__builtin__
object
p3
NtRp4
(dp5
S'contained_instances'
p6
(dp7
I0
g1
(cnetwork_update.datamodel
NetworkUpdateInstance
p8
g3
NtRp9
(dp10
S'end'
p11
I8
sS'number_of_nodes'
p12
I8
sS'rounds'
p13
I7
sS'start'
p14
I1
sS'number_of_waypoints'
p15
I0
sS'new_edges'
p16
(lp17
(I1
I5
tp18
a(I5
I3
tp19
a(I3
I7
tp20
a(I7
I2
tp21
a(I2
I6
tp22
a(I6
I4
tp23
a(I4
I8
tp24
asS'wp'
p25
(dp26
sS'fixings'
p27
(dp28
sS'nodes'
p29
(lp30
I1
aI2
aI3
aI4
aI5
aI6
aI7
aI8
asS'old_edges'
p31
(lp32
(I1
I2
tp33
a(I2
I3
tp34
a(I3
I4
tp35
a(I4
I5
tp36
a(I5
I6
tp37
a(I6
I7
tp38
a(I7
I8
tp39
asbsI1
g1
(g8
g3
NtRp40
(dp41
g11
I16
sg12
I16
sg13
I15
sg14
I1
sg15
I0
sg16
(lp42
(I1
I9
tp43
a(I9
I5
tp44
a(I5
I13
tp45
a(I13
I3
tp46
a(I3
I11
tp47
a(I11
I7
tp48
a(I7
I15
tp49
a(I15
I2
tp50
a(I2
I10
tp51
a(I10
I6
tp52
a(I6
I14
tp53
a(I14
I4
tp54
a(I4
I12
tp55
a(I12
I8
tp56
a(I8
I16
tp57
asg25
(dp58
sg27
(dp59
sg29
(lp60
I1
aI2
aI3
aI4
aI5
aI6
aI7
aI8
aI9
aI10
aI11
aI12
aI13
aI14
aI15
aI16
asg31
(lp61
(I1
I2
tp62
a(I2
I3
tp63
a(I3
I4
tp64
a(I4
I5
tp65
a(I5
I6
tp66
a(I6
I7
tp67
a(I7
I8
tp68
a(I8
I9
tp69
a(I9
I10
tp70
a(I10
I11
tp71
a(I11
I12
tp72
a(I12
I13
tp73
a(I13
I14
tp74
a(I14
I15
tp75
a(I15
I16
tp76
asbsI2
g1
(g8
g3
NtRp77
(dp78
g11
I32
sg12
I32
sg13
I31
sg14
I1
sg15
I0
sg16
(lp79
(I1
I17
tp80
a(I17
I9
tp81
a(I9
I25
tp82
a(I25
I5
tp83
a(I5
I21
tp84
a(I21
I13
tp85
a(I13
I29
tp86
a(I29
I2
tp87
a(I2
I18
tp88
a(I18
I10
tp89
a(I10
I26
tp90
a(I26
I6
tp91
a(I6
I22
tp92
a(I22
I14
tp93
a(I14
I30
tp94
a(I30
I3
tp95
a(I3
I19
tp96
a(I19
I11
tp97
a(I11
I27
tp98
a(I27
I7
tp99
a(I7
I23
tp100
a(I23
I15
tp101
a(I15
I31
tp102
a(I31
I4
tp103
a(I4
I20
tp104
a(I20
I12
tp105
a(I12
I28
tp106
a(I28
I8
tp107
a(I8
I24
tp108
a(I24
I16
tp109
a(I16
I32
tp110
asg25
(dp111
sg27
(dp112
sg29
(lp113
I1
aI2
aI3
aI4
aI5
aI6
aI7
aI8
aI9
aI10
aI11
aI12
aI13
aI14
aI15
aI16
aI17
aI18
aI19
aI20
aI21
aI22
aI23
aI24
aI25
aI26
aI27
aI28
aI29
aI30
aI31
aI32
asg31
(lp114
(I1
I2
tp115
a(I2
I3
tp116
a(I3
I4
tp117
a(I4
I5
tp118
a(I5
I6
tp119
a(I6
I7
tp120
a(I7
I8
tp121
a(I8
I9
tp122
a(I9
I10
tp123
a(I10
I11
tp124
a(I11
I12
tp125
a(I12
I13
tp126
a(I13
I14
tp127
a(I14
I15
tp128
a(I15
I16
tp129
a(I16
I17
tp130
a(I17
I18
tp131
a(I18
I19
tp132
a(I19
I20
tp133
a(I20
I21
tp134
a(I21
I22
tp135
a(I22
I23
tp136
a(I23
I24
tp137
a(I24
I25
tp138
a(I25
I26
tp139
a(I26
I27
tp140
a(I27
I28
tp141
a(I28
I29
tp142
a(I29
I30
tp143
a(I30
I31
tp144
a(I31
I32
tp145
asbsI3
g1
(g8
g3
NtRp146
(dp147
g11
I64
sg12
I64
sg13
I38
sg14
I1
sg15
I0
sg16
(lp148
(I1
I33
tp149
a(I33
I17
tp150
a(I17
I49
tp151
a(I49
I9
tp152
a(I9
I41
tp153
a(I41
I25
tp154
a(I25
I57
tp155
a(I57
I2
tp156
a(I2
I34
tp157
a(I34
I18
tp158
a(I18
I50
tp159
a(I50
I10
tp160
a(I10
I42
tp161
a(I42
I26
tp162
a(I26
I58
tp163
a(I58
I3
tp164
a(I3
I35
tp165
a(I35
I19
tp166
a(I19
I51
tp167
a(I51
I11
tp168
a(I11
I43
tp169
a(I43
I27
tp170
a(I27
I59
tp171
a(I59
I4
tp172
a(I4
I36
tp173
a(I36
I20
tp174
a(I20
I52
tp175
a(I52
I12
tp176
a(I12
I44
tp177
a(I44
I28
tp178
a(I28
I60
tp179
a(I60
I5
tp180
a(I5
I37
tp181
a(I37
I21
tp182
a(I21
I53
tp183
a(I53
I13
tp184
a(I13
I45
tp185
a(I45
I29
tp186
a(I29
I61
tp187
a(I61
I6
tp188
a(I6
I38
tp189
a(I38
I22
tp190
a(I22
I54
tp191
a(I54
I14
tp192
a(I14
I46
tp193
a(I46
I30
tp194
a(I30
I62
tp195
a(I62
I7
tp196
a(I7
I39
tp197
a(I39
I23
tp198
a(I23
I55
tp199
a(I55
I15
tp200
a(I15
I47
tp201
a(I47
I31
tp202
a(I31
I63
tp203
a(I63
I8
tp204
a(I8
I40
tp205
a(I40
I24
tp206
a(I24
I56
tp207
a(I56
I16
tp208
a(I16
I48
tp209
a(I48
I32
tp210
a(I32
I64
tp211
asg25
(dp212
sg27
(dp213
sg29
(lp214
I1
aI2
aI3
aI4
aI5
aI6
aI7
aI8
aI9
aI10
aI11
aI12
aI13
aI14
aI15
aI16
aI17
aI18
aI19
aI20
aI21
aI22
aI23
aI24
aI25
aI26
aI27
aI28
aI29
aI30
aI31
aI32
aI33
aI34
aI35
aI36
aI37
aI38
aI39
aI40
aI41
aI42
aI43
aI44
aI45
aI46
aI47
aI48
aI49
aI50
aI51
aI52
aI53
aI54
aI55
aI56
aI57
aI58
aI59
aI60
aI61
aI62
aI63
aI64
asg31
(lp215
(I1
I2
tp216
a(I2
I3
tp217
a(I3
I4
tp218
a(I4
I5
tp219
a(I5
I6
tp220
a(I6
I7
tp221
a(I7
I8
tp222
a(I8
I9
tp223
a(I9
I10
tp224
a(I10
I11
tp225
a(I11
I12
tp226
a(I12
I13
tp227
a(I13
I14
tp228
a(I14
I15
tp229
a(I15
I16
tp230
a(I16
I17
tp231
a(I17
I18
tp232
a(I18
I19
tp233
a(I19
I20
tp234
a(I20
I21
tp235
a(I21
I22
tp236
a(I22
I23
tp237
a(I23
I24
tp238
a(I24
I25
tp239
a(I25
I26
tp240
a(I26
I27
tp241
a(I27
I28
tp242
a(I28
I29
tp243
a(I29
I30
tp244
a(I30
I31
tp245
a(I31
I32
tp246
a(I32
I33
tp247
a(I33
I34
tp248
a(I34
I35
tp249
a(I35
I36
tp250
a(I36
I37
tp251
a(I37
I38
tp252
a(I38
I39
tp253
a(I39
I40
tp254
a(I40
I41
tp255
a(I41
I42
tp256
a(I42
I43
tp257
a(I43
I44
tp258
a(I44
I45
tp259
a(I45
I46
tp260
a(I46
I47
tp261
a(I47
I48
tp262
a(I48
I49
tp263
a(I49
I50
tp264
a(I50
I51
tp265
a(I51
I52
tp266
a(I52
I53
tp267
a(I53
I54
tp268
a(I54
I55
tp269
a(I55
I56
tp270
a(I56
I57
tp271
a(I57
I58
tp272
a(I58
I59
tp273
a(I59
I60
tp274
a(I60
I61
tp275
a(I61
I62
tp276
a(I62
I63
tp277
a(I63
I64
tp278
asbsI4
g1
(g8
g3
NtRp279
(dp280
g11
I128
sg12
I128
sg13
I44
sg14
I1
sg15
I0
sg16
(lp281
(I1
I65
tp282
a(I65
I33
tp283
a(I33
I97
tp284
a(I97
I17
tp285
a(I17
I81
tp286
a(I81
I49
tp287
a(I49
I113
tp288
a(I113
I2
tp289
a(I2
I66
tp290
a(I66
I34
tp291
a(I34
I98
tp292
a(I98
I18
tp293
a(I18
I82
tp294
a(I82
I50
tp295
a(I50
I114
tp296
a(I114
I3
tp297
a(I3
I67
tp298
a(I67
I35
tp299
a(I35
I99
tp300
a(I99
I19
tp301
a(I19
I83
tp302
a(I83
I51
tp303
a(I51
I115
tp304
a(I115
I4
tp305
a(I4
I68
tp306
a(I68
I36
tp307
a(I36
I100
tp308
a(I100
I20
tp309
a(I20
I84
tp310
a(I84
I52
tp311
a(I52
I116
tp312
a(I116
I5
tp313
a(I5
I69
tp314
a(I69
I37
tp315
a(I37
I101
tp316
a(I101
I21
tp317
a(I21
I85
tp318
a(I85
I53
tp319
a(I53
I117
tp320
a(I117
I6
tp321
a(I6
I70
tp322
a(I70
I38
tp323
a(I38
I102
tp324
a(I102
I22
tp325
a(I22
I86
tp326
a(I86
I54
tp327
a(I54
I118
tp328
a(I118
I7
tp329
a(I7
I71
tp330
a(I71
I39
tp331
a(I39
I103
tp332
a(I103
I23
tp333
a(I23
I87
tp334
a(I87
I55
tp335
a(I55
I119
tp336
a(I119
I8
tp337
a(I8
I72
tp338
a(I72
I40
tp339
a(I40
I104
tp340
a(I104
I24
tp341
a(I24
I88
tp342
a(I88
I56
tp343
a(I56
I120
tp344
a(I120
I9
tp345
a(I9
I73
tp346
a(I73
I41
tp347
a(I41
I105
tp348
a(I105
I25
tp349
a(I25
I89
tp350
a(I89
I57
tp351
a(I57
I121
tp352
a(I121
I10
tp353
a(I10
I74
tp354
a(I74
I42
tp355
a(I42
I106
tp356
a(I106
I26
tp357
a(I26
I90
tp358
a(I90
I58
tp359
a(I58
I122
tp360
a(I122
I11
tp361
a(I11
I75
tp362
a(I75
I43
tp363
a(I43
I107
tp364
a(I107
I27
tp365
a(I27
I91
tp366
a(I91
I59
tp367
a(I59
I123
tp368
a(I123
I12
tp369
a(I12
I76
tp370
a(I76
I44
tp371
a(I44
I108
tp372
a(I108
I28
tp373
a(I28
I92
tp374
a(I92
I60
tp375
a(I60
I124
tp376
a(I124
I13
tp377
a(I13
I77
tp378
a(I77
I45
tp379
a(I45
I109
tp380
a(I109
I29
tp381
a(I29
I93
tp382
a(I93
I61
tp383
a(I61
I125
tp384
a(I125
I14
tp385
a(I14
I78
tp386
a(I78
I46
tp387
a(I46
I110
tp388
a(I110
I30
tp389
a(I30
I94
tp390
a(I94
I62
tp391
a(I62
I126
tp392
a(I126
I15
tp393
a(I15
I79
tp394
a(I79
I47
tp395
a(I47
I111
tp396
a(I111
I31
tp397
a(I31
I95
tp398
a(I95
I63
tp399
a(I63
I127
tp400
a(I127
I16
tp401
a(I16
I80
tp402
a(I80
I48
tp403
a(I48
I112
tp404
a(I112
I32
tp405
a(I32
I96
tp406
a(I96
I64
tp407
a(I64
I128
tp408
asg25
(dp409
sg27
(dp410
sg29
(lp411
I1
aI2
aI3
aI4
aI5
aI6
aI7
aI8
aI9
aI10
aI11
aI12
aI13
aI14
aI15
aI16
aI17
aI18
aI19
aI20
aI21
aI22
aI23
aI24
aI25
aI26
aI27
aI28
aI29
aI30
aI31
aI32
aI33
aI34
aI35
aI36
aI37
aI38
aI39
aI40
aI41
aI42
aI43
aI44
aI45
aI46
aI47
aI48
aI49
aI50
aI51
aI52
aI53
aI54
aI55
aI56
aI57
aI58
aI59
aI60
aI61
aI62
aI63
aI64
aI65
aI66
aI67
aI68
aI69
aI70
aI71
aI72
aI73
aI74
aI75
aI76
aI77
aI78
aI79
aI80
aI81
aI82
aI83
aI84
aI85
aI86
aI87
aI88
aI89
aI90
aI91
aI92
aI93
aI94
aI95
aI96
aI97
aI98
aI99
aI100
aI101
aI102
aI103
aI104
aI105
aI106
aI107
aI108
aI109
aI110
aI111
aI112
aI113
aI114
aI115
aI116
aI117
aI118
aI119
aI120
aI121
aI122
aI123
aI124
aI125
aI126
aI127
aI128
asg31
(lp412
(I1
I2
tp413
a(I2
I3
tp414
a(I3
I4
tp415
a(I4
I5
tp416
a(I5
I6
tp417
a(I6
I7
tp418
a(I7
I8
tp419
a(I8
I9
tp420
a(I9
I10
tp421
a(I10
I11
tp422
a(I11
I12
tp423
a(I12
I13
tp424
a(I13
I14
tp425
a(I14
I15
tp426
a(I15
I16
tp427
a(I16
I17
tp428
a(I17
I18
tp429
a(I18
I19
tp430
a(I19
I20
tp431
a(I20
I21
tp432
a(I21
I22
tp433
a(I22
I23
tp434
a(I23
I24
tp435
a(I24
I25
tp436
a(I25
I26
tp437
a(I26
I27
tp438
a(I27
I28
tp439
a(I28
I29
tp440
a(I29
I30
tp441
a(I30
I31
tp442
a(I31
I32
tp443
a(I32
I33
tp444
a(I33
I34
tp445
a(I34
I35
tp446
a(I35
I36
tp447
a(I36
I37
tp448
a(I37
I38
tp449
a(I38
I39
tp450
a(I39
I40
tp451
a(I40
I41
tp452
a(I41
I42
tp453
a(I42
I43
tp454
a(I43
I44
tp455
a(I44
I45
tp456
a(I45
I46
tp457
a(I46
I47
tp458
a(I47
I48
tp459
a(I48
I49
tp460
a(I49
I50
tp461
a(I50
I51
tp462
a(I51
I52
tp463
a(I52
I53
tp464
a(I53
I54
tp465
a(I54
I55
tp466
a(I55
I56
tp467
a(I56
I57
tp468
a(I57
I58
tp469
a(I58
I59
tp470
a(I59
I60
tp471
a(I60
I61
tp472
a(I61
I62
tp473
a(I62
I63
tp474
a(I63
I64
tp475
a(I64
I65
tp476
a(I65
I66
tp477
a(I66
I67
tp478
a(I67
I68
tp479
a(I68
I69
tp480
a(I69
I70
tp481
a(I70
I71
tp482
a(I71
I72
tp483
a(I72
I73
tp484
a(I73
I74
tp485
a(I74
I75
tp486
a(I75
I76
tp487
a(I76
I77
tp488
a(I77
I78
tp489
a(I78
I79
tp490
a(I79
I80
tp491
a(I80
I81
tp492
a(I81
I82
tp493
a(I82
I83
tp494
a(I83
I84
tp495
a(I84
I85
tp496
a(I85
I86
tp497
a(I86
I87
tp498
a(I87
I88
tp499
a(I88
I89
tp500
a(I89
I90
tp501
a(I90
I91
tp502
a(I91
I92
tp503
a(I92
I93
tp504
a(I93
I94
tp505
a(I94
I95
tp506
a(I95
I96
tp507
a(I96
I97
tp508
a(I97
I98
tp509
a(I98
I99
tp510
a(I99
I100
tp511
a(I100
I101
tp512
a(I101
I102
tp513
a(I102
I103
tp514
a(I103
I104
tp515
a(I104
I105
tp516
a(I105
I106
tp517
a(I106
I107
tp518
a(I107
I108
tp519
a(I108
I109
tp520
a(I109
I110
tp521
a(I110
I111
tp522
a(I111
I112
tp523
a(I112
I113
tp524
a(I113
I114
tp525
a(I114
I115
tp526
a(I115
I116
tp527
a(I116
I117
tp528
a(I117
I118
tp529
a(I118
I119
tp530
a(I119
I120
tp531
a(I120
I121
tp532
a(I121
I122
tp533
a(I122
I123
tp534
a(I123
I124
tp535
a(I124
I125
tp536
a(I125
I126
tp537
a(I126
I127
tp538
a(I127
I128
tp539
asbsI5
g1
(g8
g3
NtRp540
(dp541
g11
I256
sg12
I256
sg13
I50
sg14
I1
sg15
I0
sg16
(lp542
(I1
I129
tp543
a(I129
I65
tp544
a(I65
I193
tp545
a(I193
I33
tp546
a(I33
I161
tp547
a(I161
I97
tp548
a(I97
I225
tp549
a(I225
I2
tp550
a(I2
I130
tp551
a(I130
I66
tp552
a(I66
I194
tp553
a(I194
I34
tp554
a(I34
I162
tp555
a(I162
I98
tp556
a(I98
I226
tp557
a(I226
I3
tp558
a(I3
I131
tp559
a(I131
I67
tp560
a(I67
I195
tp561
a(I195
I35
tp562
a(I35
I163
tp563
a(I163
I99
tp564
a(I99
I227
tp565
a(I227
I4
tp566
a(I4
I132
tp567
a(I132
I68
tp568
a(I68
I196
tp569
a(I196
I36
tp570
a(I36
I164
tp571
a(I164
I100
tp572
a(I100
I228
tp573
a(I228
I5
tp574
a(I5
I133
tp575
a(I133
I69
tp576
a(I69
I197
tp577
a(I197
I37
tp578
a(I37
I165
tp579
a(I165
I101
tp580
a(I101
I229
tp581
a(I229
I6
tp582
a(I6
I134
tp583
a(I134
I70
tp584
a(I70
I198
tp585
a(I198
I38
tp586
a(I38
I166
tp587
a(I166
I102
tp588
a(I102
I230
tp589
a(I230
I7
tp590
a(I7
I135
tp591
a(I135
I71
tp592
a(I71
I199
tp593
a(I199
I39
tp594
a(I39
I167
tp595
a(I167
I103
tp596
a(I103
I231
tp597
a(I231
I8
tp598
a(I8
I136
tp599
a(I136
I72
tp600
a(I72
I200
tp601
a(I200
I40
tp602
a(I40
I168
tp603
a(I168
I104
tp604
a(I104
I232
tp605
a(I232
I9
tp606
a(I9
I137
tp607
a(I137
I73
tp608
a(I73
I201
tp609
a(I201
I41
tp610
a(I41
I169
tp611
a(I169
I105
tp612
a(I105
I233
tp613
a(I233
I10
tp614
a(I10
I138
tp615
a(I138
I74
tp616
a(I74
I202
tp617
a(I202
I42
tp618
a(I42
I170
tp619
a(I170
I106
tp620
a(I106
I234
tp621
a(I234
I11
tp622
a(I11
I139
tp623
a(I139
I75
tp624
a(I75
I203
tp625
a(I203
I43
tp626
a(I43
I171
tp627
a(I171
I107
tp628
a(I107
I235
tp629
a(I235
I12
tp630
a(I12
I140
tp631
a(I140
I76
tp632
a(I76
I204
tp633
a(I204
I44
tp634
a(I44
I172
tp635
a(I172
I108
tp636
a(I108
I236
tp637
a(I236
I13
tp638
a(I13
I141
tp639
a(I141
I77
tp640
a(I77
I205
tp641
a(I205
I45
tp642
a(I45
I173
tp643
a(I173
I109
tp644
a(I109
I237
tp645
a(I237
I14
tp646
a(I14
I142
tp647
a(I142
I78
tp648
a(I78
I206
tp649
a(I206
I46
tp650
a(I46
I174
tp651
a(I174
I110
tp652
a(I110
I238
tp653
a(I238
I15
tp654
a(I15
I143
tp655
a(I143
I79
tp656
a(I79
I207
tp657
a(I207
I47
tp658
a(I47
I175
tp659
a(I175
I111
tp660
a(I111
I239
tp661
a(I239
I16
tp662
a(I16
I144
tp663
a(I144
I80
tp664
a(I80
I208
tp665
a(I208
I48
tp666
a(I48
I176
tp667
a(I176
I112
tp668
a(I112
I240
tp669
a(I240
I17
tp670
a(I17
I145
tp671
a(I145
I81
tp672
a(I81
I209
tp673
a(I209
I49
tp674
a(I49
I177
tp675
a(I177
I113
tp676
a(I113
I241
tp677
a(I241
I18
tp678
a(I18
I146
tp679
a(I146
I82
tp680
a(I82
I210
tp681
a(I210
I50
tp682
a(I50
I178
tp683
a(I178
I114
tp684
a(I114
I242
tp685
a(I242
I19
tp686
a(I19
I147
tp687
a(I147
I83
tp688
a(I83
I211
tp689
a(I211
I51
tp690
a(I51
I179
tp691
a(I179
I115
tp692
a(I115
I243
tp693
a(I243
I20
tp694
a(I20
I148
tp695
a(I148
I84
tp696
a(I84
I212
tp697
a(I212
I52
tp698
a(I52
I180
tp699
a(I180
I116
tp700
a(I116
I244
tp701
a(I244
I21
tp702
a(I21
I149
tp703
a(I149
I85
tp704
a(I85
I213
tp705
a(I213
I53
tp706
a(I53
I181
tp707
a(I181
I117
tp708
a(I117
I245
tp709
a(I245
I22
tp710
a(I22
I150
tp711
a(I150
I86
tp712
a(I86
I214
tp713
a(I214
I54
tp714
a(I54
I182
tp715
a(I182
I118
tp716
a(I118
I246
tp717
a(I246
I23
tp718
a(I23
I151
tp719
a(I151
I87
tp720
a(I87
I215
tp721
a(I215
I55
tp722
a(I55
I183
tp723
a(I183
I119
tp724
a(I119
I247
tp725
a(I247
I24
tp726
a(I24
I152
tp727
a(I152
I88
tp728
a(I88
I216
tp729
a(I216
I56
tp730
a(I56
I184
tp731
a(I184
I120
tp732
a(I120
I248
tp733
a(I248
I25
tp734
a(I25
I153
tp735
a(I153
I89
tp736
a(I89
I217
tp737
a(I217
I57
tp738
a(I57
I185
tp739
a(I185
I121
tp740
a(I121
I249
tp741
a(I249
I26
tp742
a(I26
I154
tp743
a(I154
I90
tp744
a(I90
I218
tp745
a(I218
I58
tp746
a(I58
I186
tp747
a(I186
I122
tp748
a(I122
I250
tp749
a(I250
I27
tp750
a(I27
I155
tp751
a(I155
I91
tp752
a(I91
I219
tp753
a(I219
I59
tp754
a(I59
I187
tp755
a(I187
I123
tp756
a(I123
I251
tp757
a(I251
I28
tp758
a(I28
I156
tp759
a(I156
I92
tp760
a(I92
I220
tp761
a(I220
I60
tp762
a(I60
I188
tp763
a(I188
I124
tp764
a(I124
I252
tp765
a(I252
I29
tp766
a(I29
I157
tp767
a(I157
I93
tp768
a(I93
I221
tp769
a(I221
I61
tp770
a(I61
I189
tp771
a(I189
I125
tp772
a(I125
I253
tp773
a(I253
I30
tp774
a(I30
I158
tp775
a(I158
I94
tp776
a(I94
I222
tp777
a(I222
I62
tp778
a(I62
I190
tp779
a(I190
I126
tp780
a(I126
I254
tp781
a(I254
I31
tp782
a(I31
I159
tp783
a(I159
I95
tp784
a(I95
I223
tp785
a(I223
I63
tp786
a(I63
I191
tp787
a(I191
I127
tp788
a(I127
I255
tp789
a(I255
I32
tp790
a(I32
I160
tp791
a(I160
I96
tp792
a(I96
I224
tp793
a(I224
I64
tp794
a(I64
I192
tp795
a(I192
I128
tp796
a(I128
I256
tp797
asg25
(dp798
sg27
(dp799
sg29
(lp800
I1
aI2
aI3
aI4
aI5
aI6
aI7
aI8
aI9
aI10
aI11
aI12
aI13
aI14
aI15
aI16
aI17
aI18
aI19
aI20
aI21
aI22
aI23
aI24
aI25
aI26
aI27
aI28
aI29
aI30
aI31
aI32
aI33
aI34
aI35
aI36
aI37
aI38
aI39
aI40
aI41
aI42
aI43
aI44
aI45
aI46
aI47
aI48
aI49
aI50
aI51
aI52
aI53
aI54
aI55
aI56
aI57
aI58
aI59
aI60
aI61
aI62
aI63
aI64
aI65
aI66
aI67
aI68
aI69
aI70
aI71
aI72
aI73
aI74
aI75
aI76
aI77
aI78
aI79
aI80
aI81
aI82
aI83
aI84
aI85
aI86
aI87
aI88
aI89
aI90
aI91
aI92
aI93
aI94
aI95
aI96
aI97
aI98
aI99
aI100
aI101
aI102
aI103
aI104
aI105
aI106
aI107
aI108
aI109
aI110
aI111
aI112
aI113
aI114
aI115
aI116
aI117
aI118
aI119
aI120
aI121
aI122
aI123
aI124
aI125
aI126
aI127
aI128
aI129
aI130
aI131
aI132
aI133
aI134
aI135
aI136
aI137
aI138
aI139
aI140
aI141
aI142
aI143
aI144
aI145
aI146
aI147
aI148
aI149
aI150
aI151
aI152
aI153
aI154
aI155
aI156
aI157
aI158
aI159
aI160
aI161
aI162
aI163
aI164
aI165
aI166
aI167
aI168
aI169
aI170
aI171
aI172
aI173
aI174
aI175
aI176
aI177
aI178
aI179
aI180
aI181
aI182
aI183
aI184
aI185
aI186
aI187
aI188
aI189
aI190
aI191
aI192
aI193
aI194
aI195
aI196
aI197
aI198
aI199
aI200
aI201
aI202
aI203
aI204
aI205
aI206
aI207
aI208
aI209
aI210
aI211
aI212
aI213
aI214
aI215
aI216
aI217
aI218
aI219
aI220
aI221
aI222
aI223
aI224
aI225
aI226
aI227
aI228
aI229
aI230
aI231
aI232
aI233
aI234
aI235
aI236
aI237
aI238
aI239
aI240
aI241
aI242
aI243
aI244
aI245
aI246
aI247
aI248
aI249
aI250
aI251
aI252
aI253
aI254
aI255
aI256
asg31
(lp801
(I1
I2
tp802
a(I2
I3
tp803
a(I3
I4
tp804
a(I4
I5
tp805
a(I5
I6
tp806
a(I6
I7
tp807
a(I7
I8
tp808
a(I8
I9
tp809
a(I9
I10
tp810
a(I10
I11
tp811
a(I11
I12
tp812
a(I12
I13
tp813
a(I13
I14
tp814
a(I14
I15
tp815
a(I15
I16
tp816
a(I16
I17
tp817
a(I17
I18
tp818
a(I18
I19
tp819
a(I19
I20
tp820
a(I20
I21
tp821
a(I21
I22
tp822
a(I22
I23
tp823
a(I23
I24
tp824
a(I24
I25
tp825
a(I25
I26
tp826
a(I26
I27
tp827
a(I27
I28
tp828
a(I28
I29
tp829
a(I29
I30
tp830
a(I30
I31
tp831
a(I31
I32
tp832
a(I32
I33
tp833
a(I33
I34
tp834
a(I34
I35
tp835
a(I35
I36
tp836
a(I36
I37
tp837
a(I37
I38
tp838
a(I38
I39
tp839
a(I39
I40
tp840
a(I40
I41
tp841
a(I41
I42
tp842
a(I42
I43
tp843
a(I43
I44
tp844
a(I44
I45
tp845
a(I45
I46
tp846
a(I46
I47
tp847
a(I47
I48
tp848
a(I48
I49
tp849
a(I49
I50
tp850
a(I50
I51
tp851
a(I51
I52
tp852
a(I52
I53
tp853
a(I53
I54
tp854
a(I54
I55
tp855
a(I55
I56
tp856
a(I56
I57
tp857
a(I57
I58
tp858
a(I58
I59
tp859
a(I59
I60
tp860
a(I60
I61
tp861
a(I61
I62
tp862
a(I62
I63
tp863
a(I63
I64
tp864
a(I64
I65
tp865
a(I65
I66
tp866
a(I66
I67
tp867
a(I67
I68
tp868
a(I68
I69
tp869
a(I69
I70
tp870
a(I70
I71
tp871
a(I71
I72
tp872
a(I72
I73
tp873
a(I73
I74
tp874
a(I74
I75
tp875
a(I75
I76
tp876
a(I76
I77
tp877
a(I77
I78
tp878
a(I78
I79
tp879
a(I79
I80
tp880
a(I80
I81
tp881
a(I81
I82
tp882
a(I82
I83
tp883
a(I83
I84
tp884
a(I84
I85
tp885
a(I85
I86
tp886
a(I86
I87
tp887
a(I87
I88
tp888
a(I88
I89
tp889
a(I89
I90
tp890
a(I90
I91
tp891
a(I91
I92
tp892
a(I92
I93
tp893
a(I93
I94
tp894
a(I94
I95
tp895
a(I95
I96
tp896
a(I96
I97
tp897
a(I97
I98
tp898
a(I98
I99
tp899
a(I99
I100
tp900
a(I100
I101
tp901
a(I101
I102
tp902
a(I102
I103
tp903
a(I103
I104
tp904
a(I104
I105
tp905
a(I105
I106
tp906
a(I106
I107
tp907
a(I107
I108
tp908
a(I108
I109
tp909
a(I109
I110
tp910
a(I110
I111
tp911
a(I111
I112
tp912
a(I112
I113
tp913
a(I113
I114
tp914
a(I114
I115
tp915
a(I115
I116
tp916
a(I116
I117
tp917
a(I117
I118
tp918
a(I118
I119
tp919
a(I119
I120
tp920
a(I120
I121
tp921
a(I121
I122
tp922
a(I122
I123
tp923
a(I123
I124
tp924
a(I124
I125
tp925
a(I125
I126
tp926
a(I126
I127
tp927
a(I127
I128
tp928
a(I128
I129
tp929
a(I129
I130
tp930
a(I130
I131
tp931
a(I131
I132
tp932
a(I132
I133
tp933
a(I133
I134
tp934
a(I134
I135
tp935
a(I135
I136
tp936
a(I136
I137
tp937
a(I137
I138
tp938
a(I138
I139
tp939
a(I139
I140
tp940
a(I140
I141
tp941
a(I141
I142
tp942
a(I142
I143
tp943
a(I143
I144
tp944
a(I144
I145
tp945
a(I145
I146
tp946
a(I146
I147
tp947
a(I147
I148
tp948
a(I148
I149
tp949
a(I149
I150
tp950
a(I150
I151
tp951
a(I151
I152
tp952
a(I152
I153
tp953
a(I153
I154
tp954
a(I154
I155
tp955
a(I155
I156
tp956
a(I156
I157
tp957
a(I157
I158
tp958
a(I158
I159
tp959
a(I159
I160
tp960
a(I160
I161
tp961
a(I161
I162
tp962
a(I162
I163
tp963
a(I163
I164
tp964
a(I164
I165
tp965
a(I165
I166
tp966
a(I166
I167
tp967
a(I167
I168
tp968
a(I168
I169
tp969
a(I169
I170
tp970
a(I170
I171
tp971
a(I171
I172
tp972
a(I172
I173
tp973
a(I173
I174
tp974
a(I174
I175
tp975
a(I175
I176
tp976
a(I176
I177
tp977
a(I177
I178
tp978
a(I178
I179
tp979
a(I179
I180
tp980
a(I180
I181
tp981
a(I181
I182
tp982
a(I182
I183
tp983
a(I183
I184
tp984
a(I184
I185
tp985
a(I185
I186
tp986
a(I186
I187
tp987
a(I187
I188
tp988
a(I188
I189
tp989
a(I189
I190
tp990
a(I190
I191
tp991
a(I191
I192
tp992
a(I192
I193
tp993
a(I193
I194
tp994
a(I194
I195
tp995
a(I195
I196
tp996
a(I196
I197
tp997
a(I197
I198
tp998
a(I198
I199
tp999
a(I199
I200
tp1000
a(I200
I201
tp1001
a(I201
I202
tp1002
a(I202
I203
tp1003
a(I203
I204
tp1004
a(I204
I205
tp1005
a(I205
I206
tp1006
a(I206
I207
tp1007
a(I207
I208
tp1008
a(I208
I209
tp1009
a(I209
I210
tp1010
a(I210
I211
tp1011
a(I211
I212
tp1012
a(I212
I213
tp1013
a(I213
I214
tp1014
a(I214
I215
tp1015
a(I215
I216
tp1016
a(I216
I217
tp1017
a(I217
I218
tp1018
a(I218
I219
tp1019
a(I219
I220
tp1020
a(I220
I221
tp1021
a(I221
I222
tp1022
a(I222
I223
tp1023
a(I223
I224
tp1024
a(I224
I225
tp1025
a(I225
I226
tp1026
a(I226
I227
tp1027
a(I227
I228
tp1028
a(I228
I229
tp1029
a(I229
I230
tp1030
a(I230
I231
tp1031
a(I231
I232
tp1032
a(I232
I233
tp1033
a(I233
I234
tp1034
a(I234
I235
tp1035
a(I235
I236
tp1036
a(I236
I237
tp1037
a(I237
I238
tp1038
a(I238
I239
tp1039
a(I239
I240
tp1040
a(I240
I241
tp1041
a(I241
I242
tp1042
a(I242
I243
tp1043
a(I243
I244
tp1044
a(I244
I245
tp1045
a(I245
I246
tp1046
a(I246
I247
tp1047
a(I247
I248
tp1048
a(I248
I249
tp1049
a(I249
I250
tp1050
a(I250
I251
tp1051
a(I251
I252
tp1052
a(I252
I253
tp1053
a(I253
I254
tp1054
a(I254
I255
tp1055
a(I255
I256
tp1056
asbsI6
g1
(g8
g3
NtRp1057
(dp1058
g11
I512
sg12
I512
sg13
I56
sg14
I1
sg15
I0
sg16
(lp1059
(I1
I257
tp1060
a(I257
I129
tp1061
a(I129
I385
tp1062
a(I385
I65
tp1063
a(I65
I321
tp1064
a(I321
I193
tp1065
a(I193
I449
tp1066
a(I449
I2
tp1067
a(I2
I258
tp1068
a(I258
I130
tp1069
a(I130
I386
tp1070
a(I386
I66
tp1071
a(I66
I322
tp1072
a(I322
I194
tp1073
a(I194
I450
tp1074
a(I450
I3
tp1075
a(I3
I259
tp1076
a(I259
I131
tp1077
a(I131
I387
tp1078
a(I387
I67
tp1079
a(I67
I323
tp1080
a(I323
I195
tp1081
a(I195
I451
tp1082
a(I451
I4
tp1083
a(I4
I260
tp1084
a(I260
I132
tp1085
a(I132
I388
tp1086
a(I388
I68
tp1087
a(I68
I324
tp1088
a(I324
I196
tp1089
a(I196
I452
tp1090
a(I452
I5
tp1091
a(I5
I261
tp1092
a(I261
I133
tp1093
a(I133
I389
tp1094
a(I389
I69
tp1095
a(I69
I325
tp1096
a(I325
I197
tp1097
a(I197
I453
tp1098
a(I453
I6
tp1099
a(I6
I262
tp1100
a(I262
I134
tp1101
a(I134
I390
tp1102
a(I390
I70
tp1103
a(I70
I326
tp1104
a(I326
I198
tp1105
a(I198
I454
tp1106
a(I454
I7
tp1107
a(I7
I263
tp1108
a(I263
I135
tp1109
a(I135
I391
tp1110
a(I391
I71
tp1111
a(I71
I327
tp1112
a(I327
I199
tp1113
a(I199
I455
tp1114
a(I455
I8
tp1115
a(I8
I264
tp1116
a(I264
I136
tp1117
a(I136
I392
tp1118
a(I392
I72
tp1119
a(I72
I328
tp1120
a(I328
I200
tp1121
a(I200
I456
tp1122
a(I456
I9
tp1123
a(I9
I265
tp1124
a(I265
I137
tp1125
a(I137
I393
tp1126
a(I393
I73
tp1127
a(I73
I329
tp1128
a(I329
I201
tp1129
a(I201
I457
tp1130
a(I457
I10
tp1131
a(I10
I266
tp1132
a(I266
I138
tp1133
a(I138
I394
tp1134
a(I394
I74
tp1135
a(I74
I330
tp1136
a(I330
I202
tp1137
a(I202
I458
tp1138
a(I458
I11
tp1139
a(I11
I267
tp1140
a(I267
I139
tp1141
a(I139
I395
tp1142
a(I395
I75
tp1143
a(I75
I331
tp1144
a(I331
I203
tp1145
a(I203
I459
tp1146
a(I459
I12
tp1147
a(I12
I268
tp1148
a(I268
I140
tp1149
a(I140
I396
tp1150
a(I396
I76
tp1151
a(I76
I332
tp1152
a(I332
I204
tp1153
a(I204
I460
tp1154
a(I460
I13
tp1155
a(I13
I269
tp1156
a(I269
I141
tp1157
a(I141
I397
tp1158
a(I397
I77
tp1159
a(I77
I333
tp1160
a(I333
I205
tp1161
a(I205
I461
tp1162
a(I461
I14
tp1163
a(I14
I270
tp1164
a(I270
I142
tp1165
a(I142
I398
tp1166
a(I398
I78
tp1167
a(I78
I334
tp1168
a(I334
I206
tp1169
a(I206
I462
tp1170
a(I462
I15
tp1171
a(I15
I271
tp1172
a(I271
I143
tp1173
a(I143
I399
tp1174
a(I399
I79
tp1175
a(I79
I335
tp1176
a(I335
I207
tp1177
a(I207
I463
tp1178
a(I463
I16
tp1179
a(I16
I272
tp1180
a(I272
I144
tp1181
a(I144
I400
tp1182
a(I400
I80
tp1183
a(I80
I336
tp1184
a(I336
I208
tp1185
a(I208
I464
tp1186
a(I464
I17
tp1187
a(I17
I273
tp1188
a(I273
I145
tp1189
a(I145
I401
tp1190
a(I401
I81
tp1191
a(I81
I337
tp1192
a(I337
I209
tp1193
a(I209
I465
tp1194
a(I465
I18
tp1195
a(I18
I274
tp1196
a(I274
I146
tp1197
a(I146
I402
tp1198
a(I402
I82
tp1199
a(I82
I338
tp1200
a(I338
I210
tp1201
a(I210
I466
tp1202
a(I466
I19
tp1203
a(I19
I275
tp1204
a(I275
I147
tp1205
a(I147
I403
tp1206
a(I403
I83
tp1207
a(I83
I339
tp1208
a(I339
I211
tp1209
a(I211
I467
tp1210
a(I467
I20
tp1211
a(I20
I276
tp1212
a(I276
I148
tp1213
a(I148
I404
tp1214
a(I404
I84
tp1215
a(I84
I340
tp1216
a(I340
I212
tp1217
a(I212
I468
tp1218
a(I468
I21
tp1219
a(I21
I277
tp1220
a(I277
I149
tp1221
a(I149
I405
tp1222
a(I405
I85
tp1223
a(I85
I341
tp1224
a(I341
I213
tp1225
a(I213
I469
tp1226
a(I469
I22
tp1227
a(I22
I278
tp1228
a(I278
I150
tp1229
a(I150
I406
tp1230
a(I406
I86
tp1231
a(I86
I342
tp1232
a(I342
I214
tp1233
a(I214
I470
tp1234
a(I470
I23
tp1235
a(I23
I279
tp1236
a(I279
I151
tp1237
a(I151
I407
tp1238
a(I407
I87
tp1239
a(I87
I343
tp1240
a(I343
I215
tp1241
a(I215
I471
tp1242
a(I471
I24
tp1243
a(I24
I280
tp1244
a(I280
I152
tp1245
a(I152
I408
tp1246
a(I408
I88
tp1247
a(I88
I344
tp1248
a(I344
I216
tp1249
a(I216
I472
tp1250
a(I472
I25
tp1251
a(I25
I281
tp1252
a(I281
I153
tp1253
a(I153
I409
tp1254
a(I409
I89
tp1255
a(I89
I345
tp1256
a(I345
I217
tp1257
a(I217
I473
tp1258
a(I473
I26
tp1259
a(I26
I282
tp1260
a(I282
I154
tp1261
a(I154
I410
tp1262
a(I410
I90
tp1263
a(I90
I346
tp1264
a(I346
I218
tp1265
a(I218
I474
tp1266
a(I474
I27
tp1267
a(I27
I283
tp1268
a(I283
I155
tp1269
a(I155
I411
tp1270
a(I411
I91
tp1271
a(I91
I347
tp1272
a(I347
I219
tp1273
a(I219
I475
tp1274
a(I475
I28
tp1275
a(I28
I284
tp1276
a(I284
I156
tp1277
a(I156
I412
tp1278
a(I412
I92
tp1279
a(I92
I348
tp1280
a(I348
I220
tp1281
a(I220
I476
tp1282
a(I476
I29
tp1283
a(I29
I285
tp1284
a(I285
I157
tp1285
a(I157
I413
tp1286
a(I413
I93
tp1287
a(I93
I349
tp1288
a(I349
I221
tp1289
a(I221
I477
tp1290
a(I477
I30
tp1291
a(I30
I286
tp1292
a(I286
I158
tp1293
a(I158
I414
tp1294
a(I414
I94
tp1295
a(I94
I350
tp1296
a(I350
I222
tp1297
a(I222
I478
tp1298
a(I478
I31
tp1299
a(I31
I287
tp1300
a(I287
I159
tp1301
a(I159
I415
tp1302
a(I415
I95
tp1303
a(I95
I351
tp1304
a(I351
I223
tp1305
a(I223
I479
tp1306
a(I479
I32
tp1307
a(I32
I288
tp1308
a(I288
I160
tp1309
a(I160
I416
tp1310
a(I416
I96
tp1311
a(I96
I352
tp1312
a(I352
I224
tp1313
a(I224
I480
tp1314
a(I480
I33
tp1315
a(I33
I289
tp1316
a(I289
I161
tp1317
a(I161
I417
tp1318
a(I417
I97
tp1319
a(I97
I353
tp1320
a(I353
I225
tp1321
a(I225
I481
tp1322
a(I481
I34
tp1323
a(I34
I290
tp1324
a(I290
I162
tp1325
a(I162
I418
tp1326
a(I418
I98
tp1327
a(I98
I354
tp1328
a(I354
I226
tp1329
a(I226
I482
tp1330
a(I482
I35
tp1331
a(I35
I291
tp1332
a(I291
I163
tp1333
a(I163
I419
tp1334
a(I419
I99
tp1335
a(I99
I355
tp1336
a(I355
I227
tp1337
a(I227
I483
tp1338
a(I483
I36
tp1339
a(I36
I292
tp1340
a(I292
I164
tp1341
a(I164
I420
tp1342
a(I420
I100
tp1343
a(I100
I356
tp1344
a(I356
I228
tp1345
a(I228
I484
tp1346
a(I484
I37
tp1347
a(I37
I293
tp1348
a(I293
I165
tp1349
a(I165
I421
tp1350
a(I421
I101
tp1351
a(I101
I357
tp1352
a(I357
I229
tp1353
a(I229
I485
tp1354
a(I485
I38
tp1355
a(I38
I294
tp1356
a(I294
I166
tp1357
a(I166
I422
tp1358
a(I422
I102
tp1359
a(I102
I358
tp1360
a(I358
I230
tp1361
a(I230
I486
tp1362
a(I486
I39
tp1363
a(I39
I295
tp1364
a(I295
I167
tp1365
a(I167
I423
tp1366
a(I423
I103
tp1367
a(I103
I359
tp1368
a(I359
I231
tp1369
a(I231
I487
tp1370
a(I487
I40
tp1371
a(I40
I296
tp1372
a(I296
I168
tp1373
a(I168
I424
tp1374
a(I424
I104
tp1375
a(I104
I360
tp1376
a(I360
I232
tp1377
a(I232
I488
tp1378
a(I488
I41
tp1379
a(I41
I297
tp1380
a(I297
I169
tp1381
a(I169
I425
tp1382
a(I425
I105
tp1383
a(I105
I361
tp1384
a(I361
I233
tp1385
a(I233
I489
tp1386
a(I489
I42
tp1387
a(I42
I298
tp1388
a(I298
I170
tp1389
a(I170
I426
tp1390
a(I426
I106
tp1391
a(I106
I362
tp1392
a(I362
I234
tp1393
a(I234
I490
tp1394
a(I490
I43
tp1395
a(I43
I299
tp1396
a(I299
I171
tp1397
a(I171
I427
tp1398
a(I427
I107
tp1399
a(I107
I363
tp1400
a(I363
I235
tp1401
a(I235
I491
tp1402
a(I491
I44
tp1403
a(I44
I300
tp1404
a(I300
I172
tp1405
a(I172
I428
tp1406
a(I428
I108
tp1407
a(I108
I364
tp1408
a(I364
I236
tp1409
a(I236
I492
tp1410
a(I492
I45
tp1411
a(I45
I301
tp1412
a(I301
I173
tp1413
a(I173
I429
tp1414
a(I429
I109
tp1415
a(I109
I365
tp1416
a(I365
I237
tp1417
a(I237
I493
tp1418
a(I493
I46
tp1419
a(I46
I302
tp1420
a(I302
I174
tp1421
a(I174
I430
tp1422
a(I430
I110
tp1423
a(I110
I366
tp1424
a(I366
I238
tp1425
a(I238
I494
tp1426
a(I494
I47
tp1427
a(I47
I303
tp1428
a(I303
I175
tp1429
a(I175
I431
tp1430
a(I431
I111
tp1431
a(I111
I367
tp1432
a(I367
I239
tp1433
a(I239
I495
tp1434
a(I495
I48
tp1435
a(I48
I304
tp1436
a(I304
I176
tp1437
a(I176
I432
tp1438
a(I432
I112
tp1439
a(I112
I368
tp1440
a(I368
I240
tp1441
a(I240
I496
tp1442
a(I496
I49
tp1443
a(I49
I305
tp1444
a(I305
I177
tp1445
a(I177
I433
tp1446
a(I433
I113
tp1447
a(I113
I369
tp1448
a(I369
I241
tp1449
a(I241
I497
tp1450
a(I497
I50
tp1451
a(I50
I306
tp1452
a(I306
I178
tp1453
a(I178
I434
tp1454
a(I434
I114
tp1455
a(I114
I370
tp1456
a(I370
I242
tp1457
a(I242
I498
tp1458
a(I498
I51
tp1459
a(I51
I307
tp1460
a(I307
I179
tp1461
a(I179
I435
tp1462
a(I435
I115
tp1463
a(I115
I371
tp1464
a(I371
I243
tp1465
a(I243
I499
tp1466
a(I499
I52
tp1467
a(I52
I308
tp1468
a(I308
I180
tp1469
a(I180
I436
tp1470
a(I436
I116
tp1471
a(I116
I372
tp1472
a(I372
I244
tp1473
a(I244
I500
tp1474
a(I500
I53
tp1475
a(I53
I309
tp1476
a(I309
I181
tp1477
a(I181
I437
tp1478
a(I437
I117
tp1479
a(I117
I373
tp1480
a(I373
I245
tp1481
a(I245
I501
tp1482
a(I501
I54
tp1483
a(I54
I310
tp1484
a(I310
I182
tp1485
a(I182
I438
tp1486
a(I438
I118
tp1487
a(I118
I374
tp1488
a(I374
I246
tp1489
a(I246
I502
tp1490
a(I502
I55
tp1491
a(I55
I311
tp1492
a(I311
I183
tp1493
a(I183
I439
tp1494
a(I439
I119
tp1495
a(I119
I375
tp1496
a(I375
I247
tp1497
a(I247
I503
tp1498
a(I503
I56
tp1499
a(I56
I312
tp1500
a(I312
I184
tp1501
a(I184
I440
tp1502
a(I440
I120
tp1503
a(I120
I376
tp1504
a(I376
I248
tp1505
a(I248
I504
tp1506
a(I504
I57
tp1507
a(I57
I313
tp1508
a(I313
I185
tp1509
a(I185
I441
tp1510
a(I441
I121
tp1511
a(I121
I377
tp1512
a(I377
I249
tp1513
a(I249
I505
tp1514
a(I505
I58
tp1515
a(I58
I314
tp1516
a(I314
I186
tp1517
a(I186
I442
tp1518
a(I442
I122
tp1519
a(I122
I378
tp1520
a(I378
I250
tp1521
a(I250
I506
tp1522
a(I506
I59
tp1523
a(I59
I315
tp1524
a(I315
I187
tp1525
a(I187
I443
tp1526
a(I443
I123
tp1527
a(I123
I379
tp1528
a(I379
I251
tp1529
a(I251
I507
tp1530
a(I507
I60
tp1531
a(I60
I316
tp1532
a(I316
I188
tp1533
a(I188
I444
tp1534
a(I444
I124
tp1535
a(I124
I380
tp1536
a(I380
I252
tp1537
a(I252
I508
tp1538
a(I508
I61
tp1539
a(I61
I317
tp1540
a(I317
I189
tp1541
a(I189
I445
tp1542
a(I445
I125
tp1543
a(I125
I381
tp1544
a(I381
I253
tp1545
a(I253
I509
tp1546
a(I509
I62
tp1547
a(I62
I318
tp1548
a(I318
I190
tp1549
a(I190
I446
tp1550
a(I446
I126
tp1551
a(I126
I382
tp1552
a(I382
I254
tp1553
a(I254
I510
tp1554
a(I510
I63
tp1555
a(I63
I319
tp1556
a(I319
I191
tp1557
a(I191
I447
tp1558
a(I447
I127
tp1559
a(I127
I383
tp1560
a(I383
I255
tp1561
a(I255
I511
tp1562
a(I511
I64
tp1563
a(I64
I320
tp1564
a(I320
I192
tp1565
a(I192
I448
tp1566
a(I448
I128
tp1567
a(I128
I384
tp1568
a(I384
I256
tp1569
a(I256
I512
tp1570
asg25
(dp1571
sg27
(dp1572
sg29
(lp1573
I1
aI2
aI3
aI4
aI5
aI6
aI7
aI8
aI9
aI10
aI11
aI12
aI13
aI14
aI15
aI16
aI17
aI18
aI19
aI20
aI21
aI22
aI23
aI24
aI25
aI26
aI27
aI28
aI29
aI30
aI31
aI32
aI33
aI34
aI35
aI36
aI37
aI38
aI39
aI40
aI41
aI42
aI43
aI44
aI45
aI46
aI47
aI48
aI49
aI50
aI51
aI52
aI53
aI54
aI55
aI56
aI57
aI58
aI59
aI60
aI61
aI62
aI63
aI64
aI65
aI66
aI67
aI68
aI69
aI70
aI71
aI72
aI73
aI74
aI75
aI76
aI77
aI78
aI79
aI80
aI81
aI82
aI83
aI84
aI85
aI86
aI87
aI88
aI89
aI90
aI91
aI92
aI93
aI94
aI95
aI96
aI97
aI98
aI99
aI100
aI101
aI102
aI103
aI104
aI105
aI106
aI107
aI108
aI109
aI110
aI111
aI112
aI113
aI114
aI115
aI116
aI117
aI118
aI119
aI120
aI121
aI122
aI123
aI124
aI125
aI126
aI127
aI128
aI129
aI130
aI131
aI132
aI133
aI134
aI135
aI136
aI137
aI138
aI139
aI140
aI141
aI142
aI143
aI144
aI145
aI146
aI147
aI148
aI149
aI150
aI151
aI152
aI153
aI154
aI155
aI156
aI157
aI158
aI159
aI160
aI161
aI162
aI163
aI164
aI165
aI166
aI167
aI168
aI169
aI170
aI171
aI172
aI173
aI174
aI175
aI176
aI177
aI178
aI179
aI180
aI181
aI182
aI183
aI184
aI185
aI186
aI187
aI188
aI189
aI190
aI191
aI192
aI193
aI194
aI195
aI196
aI197
aI198
aI199
aI200
aI201
aI202
aI203
aI204
aI205
aI206
aI207
aI208
aI209
aI210
aI211
aI212
aI213
aI214
aI215
aI216
aI217
aI218
aI219
aI220
aI221
aI222
aI223
aI224
aI225
aI226
aI227
aI228
aI229
aI230
aI231
aI232
aI233
aI234
aI235
aI236
aI237
aI238
aI239
aI240
aI241
aI242
aI243
aI244
aI245
aI246
aI247
aI248
aI249
aI250
aI251
aI252
aI253
aI254
aI255
aI256
aI257
aI258
aI259
aI260
aI261
aI262
aI263
aI264
aI265
aI266
aI267
aI268
aI269
aI270
aI271
aI272
aI273
aI274
aI275
aI276
aI277
aI278
aI279
aI280
aI281
aI282
aI283
aI284
aI285
aI286
aI287
aI288
aI289
aI290
aI291
aI292
aI293
aI294
aI295
aI296
aI297
aI298
aI299
aI300
aI301
aI302
aI303
aI304
aI305
aI306
aI307
aI308
aI309
aI310
aI311
aI312
aI313
aI314
aI315
aI316
aI317
aI318
aI319
aI320
aI321
aI322
aI323
aI324
aI325
aI326
aI327
aI328
aI329
aI330
aI331
aI332
aI333
aI334
aI335
aI336
aI337
aI338
aI339
aI340
aI341
aI342
aI343
aI344
aI345
aI346
aI347
aI348
aI349
aI350
aI351
aI352
aI353
aI354
aI355
aI356
aI357
aI358
aI359
aI360
aI361
aI362
aI363
aI364
aI365
aI366
aI367
aI368
aI369
aI370
aI371
aI372
aI373
aI374
aI375
aI376
aI377
aI378
aI379
aI380
aI381
aI382
aI383
aI384
aI385
aI386
aI387
aI388
aI389
aI390
aI391
aI392
aI393
aI394
aI395
aI396
aI397
aI398
aI399
aI400
aI401
aI402
aI403
aI404
aI405
aI406
aI407
aI408
aI409
aI410
aI411
aI412
aI413
aI414
aI415
aI416
aI417
aI418
aI419
aI420
aI421
aI422
aI423
aI424
aI425
aI426
aI427
aI428
aI429
aI430
aI431
aI432
aI433
aI434
aI435
aI436
aI437
aI438
aI439
aI440
aI441
aI442
aI443
aI444
aI445
aI446
aI447
aI448
aI449
aI450
aI451
aI452
aI453
aI454
aI455
aI456
aI457
aI458
aI459
aI460
aI461
aI462
aI463
aI464
aI465
aI466
aI467
aI468
aI469
aI470
aI471
aI472
aI473
aI474
aI475
aI476
aI477
aI478
aI479
aI480
aI481
aI482
aI483
aI484
aI485
aI486
aI487
aI488
aI489
aI490
aI491
aI492
aI493
aI494
aI495
aI496
aI497
aI498
aI499
aI500
aI501
aI502
aI503
aI504
aI505
aI506
aI507
aI508
aI509
aI510
aI511
aI512
asg31
(lp1574
(I1
I2
tp1575
a(I2
I3
tp1576
a(I3
I4
tp1577
a(I4
I5
tp1578
a(I5
I6
tp1579
a(I6
I7
tp1580
a(I7
I8
tp1581
a(I8
I9
tp1582
a(I9
I10
tp1583
a(I10
I11
tp1584
a(I11
I12
tp1585
a(I12
I13
tp1586
a(I13
I14
tp1587
a(I14
I15
tp1588
a(I15
I16
tp1589
a(I16
I17
tp1590
a(I17
I18
tp1591
a(I18
I19
tp1592
a(I19
I20
tp1593
a(I20
I21
tp1594
a(I21
I22
tp1595
a(I22
I23
tp1596
a(I23
I24
tp1597
a(I24
I25
tp1598
a(I25
I26
tp1599
a(I26
I27
tp1600
a(I27
I28
tp1601
a(I28
I29
tp1602
a(I29
I30
tp1603
a(I30
I31
tp1604
a(I31
I32
tp1605
a(I32
I33
tp1606
a(I33
I34
tp1607
a(I34
I35
tp1608
a(I35
I36
tp1609
a(I36
I37
tp1610
a(I37
I38
tp1611
a(I38
I39
tp1612
a(I39
I40
tp1613
a(I40
I41
tp1614
a(I41
I42
tp1615
a(I42
I43
tp1616
a(I43
I44
tp1617
a(I44
I45
tp1618
a(I45
I46
tp1619
a(I46
I47
tp1620
a(I47
I48
tp1621
a(I48
I49
tp1622
a(I49
I50
tp1623
a(I50
I51
tp1624
a(I51
I52
tp1625
a(I52
I53
tp1626
a(I53
I54
tp1627
a(I54
I55
tp1628
a(I55
I56
tp1629
a(I56
I57
tp1630
a(I57
I58
tp1631
a(I58
I59
tp1632
a(I59
I60
tp1633
a(I60
I61
tp1634
a(I61
I62
tp1635
a(I62
I63
tp1636
a(I63
I64
tp1637
a(I64
I65
tp1638
a(I65
I66
tp1639
a(I66
I67
tp1640
a(I67
I68
tp1641
a(I68
I69
tp1642
a(I69
I70
tp1643
a(I70
I71
tp1644
a(I71
I72
tp1645
a(I72
I73
tp1646
a(I73
I74
tp1647
a(I74
I75
tp1648
a(I75
I76
tp1649
a(I76
I77
tp1650
a(I77
I78
tp1651
a(I78
I79
tp1652
a(I79
I80
tp1653
a(I80
I81
tp1654
a(I81
I82
tp1655
a(I82
I83
tp1656
a(I83
I84
tp1657
a(I84
I85
tp1658
a(I85
I86
tp1659
a(I86
I87
tp1660
a(I87
I88
tp1661
a(I88
I89
tp1662
a(I89
I90
tp1663
a(I90
I91
tp1664
a(I91
I92
tp1665
a(I92
I93
tp1666
a(I93
I94
tp1667
a(I94
I95
tp1668
a(I95
I96
tp1669
a(I96
I97
tp1670
a(I97
I98
tp1671
a(I98
I99
tp1672
a(I99
I100
tp1673
a(I100
I101
tp1674
a(I101
I102
tp1675
a(I102
I103
tp1676
a(I103
I104
tp1677
a(I104
I105
tp1678
a(I105
I106
tp1679
a(I106
I107
tp1680
a(I107
I108
tp1681
a(I108
I109
tp1682
a(I109
I110
tp1683
a(I110
I111
tp1684
a(I111
I112
tp1685
a(I112
I113
tp1686
a(I113
I114
tp1687
a(I114
I115
tp1688
a(I115
I116
tp1689
a(I116
I117
tp1690
a(I117
I118
tp1691
a(I118
I119
tp1692
a(I119
I120
tp1693
a(I120
I121
tp1694
a(I121
I122
tp1695
a(I122
I123
tp1696
a(I123
I124
tp1697
a(I124
I125
tp1698
a(I125
I126
tp1699
a(I126
I127
tp1700
a(I127
I128
tp1701
a(I128
I129
tp1702
a(I129
I130
tp1703
a(I130
I131
tp1704
a(I131
I132
tp1705
a(I132
I133
tp1706
a(I133
I134
tp1707
a(I134
I135
tp1708
a(I135
I136
tp1709
a(I136
I137
tp1710
a(I137
I138
tp1711
a(I138
I139
tp1712
a(I139
I140
tp1713
a(I140
I141
tp1714
a(I141
I142
tp1715
a(I142
I143
tp1716
a(I143
I144
tp1717
a(I144
I145
tp1718
a(I145
I146
tp1719
a(I146
I147
tp1720
a(I147
I148
tp1721
a(I148
I149
tp1722
a(I149
I150
tp1723
a(I150
I151
tp1724
a(I151
I152
tp1725
a(I152
I153
tp1726
a(I153
I154
tp1727
a(I154
I155
tp1728
a(I155
I156
tp1729
a(I156
I157
tp1730
a(I157
I158
tp1731
a(I158
I159
tp1732
a(I159
I160
tp1733
a(I160
I161
tp1734
a(I161
I162
tp1735
a(I162
I163
tp1736
a(I163
I164
tp1737
a(I164
I165
tp1738
a(I165
I166
tp1739
a(I166
I167
tp1740
a(I167
I168
tp1741
a(I168
I169
tp1742
a(I169
I170
tp1743
a(I170
I171
tp1744
a(I171
I172
tp1745
a(I172
I173
tp1746
a(I173
I174
tp1747
a(I174
I175
tp1748
a(I175
I176
tp1749
a(I176
I177
tp1750
a(I177
I178
tp1751
a(I178
I179
tp1752
a(I179
I180
tp1753
a(I180
I181
tp1754
a(I181
I182
tp1755
a(I182
I183
tp1756
a(I183
I184
tp1757
a(I184
I185
tp1758
a(I185
I186
tp1759
a(I186
I187
tp1760
a(I187
I188
tp1761
a(I188
I189
tp1762
a(I189
I190
tp1763
a(I190
I191
tp1764
a(I191
I192
tp1765
a(I192
I193
tp1766
a(I193
I194
tp1767
a(I194
I195
tp1768
a(I195
I196
tp1769
a(I196
I197
tp1770
a(I197
I198
tp1771
a(I198
I199
tp1772
a(I199
I200
tp1773
a(I200
I201
tp1774
a(I201
I202
tp1775
a(I202
I203
tp1776
a(I203
I204
tp1777
a(I204
I205
tp1778
a(I205
I206
tp1779
a(I206
I207
tp1780
a(I207
I208
tp1781
a(I208
I209
tp1782
a(I209
I210
tp1783
a(I210
I211
tp1784
a(I211
I212
tp1785
a(I212
I213
tp1786
a(I213
I214
tp1787
a(I214
I215
tp1788
a(I215
I216
tp1789
a(I216
I217
tp1790
a(I217
I218
tp1791
a(I218
I219
tp1792
a(I219
I220
tp1793
a(I220
I221
tp1794
a(I221
I222
tp1795
a(I222
I223
tp1796
a(I223
I224
tp1797
a(I224
I225
tp1798
a(I225
I226
tp1799
a(I226
I227
tp1800
a(I227
I228
tp1801
a(I228
I229
tp1802
a(I229
I230
tp1803
a(I230
I231
tp1804
a(I231
I232
tp1805
a(I232
I233
tp1806
a(I233
I234
tp1807
a(I234
I235
tp1808
a(I235
I236
tp1809
a(I236
I237
tp1810
a(I237
I238
tp1811
a(I238
I239
tp1812
a(I239
I240
tp1813
a(I240
I241
tp1814
a(I241
I242
tp1815
a(I242
I243
tp1816
a(I243
I244
tp1817
a(I244
I245
tp1818
a(I245
I246
tp1819
a(I246
I247
tp1820
a(I247
I248
tp1821
a(I248
I249
tp1822
a(I249
I250
tp1823
a(I250
I251
tp1824
a(I251
I252
tp1825
a(I252
I253
tp1826
a(I253
I254
tp1827
a(I254
I255
tp1828
a(I255
I256
tp1829
a(I256
I257
tp1830
a(I257
I258
tp1831
a(I258
I259
tp1832
a(I259
I260
tp1833
a(I260
I261
tp1834
a(I261
I262
tp1835
a(I262
I263
tp1836
a(I263
I264
tp1837
a(I264
I265
tp1838
a(I265
I266
tp1839
a(I266
I267
tp1840
a(I267
I268
tp1841
a(I268
I269
tp1842
a(I269
I270
tp1843
a(I270
I271
tp1844
a(I271
I272
tp1845
a(I272
I273
tp1846
a(I273
I274
tp1847
a(I274
I275
tp1848
a(I275
I276
tp1849
a(I276
I277
tp1850
a(I277
I278
tp1851
a(I278
I279
tp1852
a(I279
I280
tp1853
a(I280
I281
tp1854
a(I281
I282
tp1855
a(I282
I283
tp1856
a(I283
I284
tp1857
a(I284
I285
tp1858
a(I285
I286
tp1859
a(I286
I287
tp1860
a(I287
I288
tp1861
a(I288
I289
tp1862
a(I289
I290
tp1863
a(I290
I291
tp1864
a(I291
I292
tp1865
a(I292
I293
tp1866
a(I293
I294
tp1867
a(I294
I295
tp1868
a(I295
I296
tp1869
a(I296
I297
tp1870
a(I297
I298
tp1871
a(I298
I299
tp1872
a(I299
I300
tp1873
a(I300
I301
tp1874
a(I301
I302
tp1875
a(I302
I303
tp1876
a(I303
I304
tp1877
a(I304
I305
tp1878
a(I305
I306
tp1879
a(I306
I307
tp1880
a(I307
I308
tp1881
a(I308
I309
tp1882
a(I309
I310
tp1883
a(I310
I311
tp1884
a(I311
I312
tp1885
a(I312
I313
tp1886
a(I313
I314
tp1887
a(I314
I315
tp1888
a(I315
I316
tp1889
a(I316
I317
tp1890
a(I317
I318
tp1891
a(I318
I319
tp1892
a(I319
I320
tp1893
a(I320
I321
tp1894
a(I321
I322
tp1895
a(I322
I323
tp1896
a(I323
I324
tp1897
a(I324
I325
tp1898
a(I325
I326
tp1899
a(I326
I327
tp1900
a(I327
I328
tp1901
a(I328
I329
tp1902
a(I329
I330
tp1903
a(I330
I331
tp1904
a(I331
I332
tp1905
a(I332
I333
tp1906
a(I333
I334
tp1907
a(I334
I335
tp1908
a(I335
I336
tp1909
a(I336
I337
tp1910
a(I337
I338
tp1911
a(I338
I339
tp1912
a(I339
I340
tp1913
a(I340
I341
tp1914
a(I341
I342
tp1915
a(I342
I343
tp1916
a(I343
I344
tp1917
a(I344
I345
tp1918
a(I345
I346
tp1919
a(I346
I347
tp1920
a(I347
I348
tp1921
a(I348
I349
tp1922
a(I349
I350
tp1923
a(I350
I351
tp1924
a(I351
I352
tp1925
a(I352
I353
tp1926
a(I353
I354
tp1927
a(I354
I355
tp1928
a(I355
I356
tp1929
a(I356
I357
tp1930
a(I357
I358
tp1931
a(I358
I359
tp1932
a(I359
I360
tp1933
a(I360
I361
tp1934
a(I361
I362
tp1935
a(I362
I363
tp1936
a(I363
I364
tp1937
a(I364
I365
tp1938
a(I365
I366
tp1939
a(I366
I367
tp1940
a(I367
I368
tp1941
a(I368
I369
tp1942
a(I369
I370
tp1943
a(I370
I371
tp1944
a(I371
I372
tp1945
a(I372
I373
tp1946
a(I373
I374
tp1947
a(I374
I375
tp1948
a(I375
I376
tp1949
a(I376
I377
tp1950
a(I377
I378
tp1951
a(I378
I379
tp1952
a(I379
I380
tp1953
a(I380
I381
tp1954
a(I381
I382
tp1955
a(I382
I383
tp1956
a(I383
I384
tp1957
a(I384
I385
tp1958
a(I385
I386
tp1959
a(I386
I387
tp1960
a(I387
I388
tp1961
a(I388
I389
tp1962
a(I389
I390
tp1963
a(I390
I391
tp1964
a(I391
I392
tp1965
a(I392
I393
tp1966
a(I393
I394
tp1967
a(I394
I395
tp1968
a(I395
I396
tp1969
a(I396
I397
tp1970
a(I397
I398
tp1971
a(I398
I399
tp1972
a(I399
I400
tp1973
a(I400
I401
tp1974
a(I401
I402
tp1975
a(I402
I403
tp1976
a(I403
I404
tp1977
a(I404
I405
tp1978
a(I405
I406
tp1979
a(I406
I407
tp1980
a(I407
I408
tp1981
a(I408
I409
tp1982
a(I409
I410
tp1983
a(I410
I411
tp1984
a(I411
I412
tp1985
a(I412
I413
tp1986
a(I413
I414
tp1987
a(I414
I415
tp1988
a(I415
I416
tp1989
a(I416
I417
tp1990
a(I417
I418
tp1991
a(I418
I419
tp1992
a(I419
I420
tp1993
a(I420
I421
tp1994
a(I421
I422
tp1995
a(I422
I423
tp1996
a(I423
I424
tp1997
a(I424
I425
tp1998
a(I425
I426
tp1999
a(I426
I427
tp2000
a(I427
I428
tp2001
a(I428
I429
tp2002
a(I429
I430
tp2003
a(I430
I431
tp2004
a(I431
I432
tp2005
a(I432
I433
tp2006
a(I433
I434
tp2007
a(I434
I435
tp2008
a(I435
I436
tp2009
a(I436
I437
tp2010
a(I437
I438
tp2011
a(I438
I439
tp2012
a(I439
I440
tp2013
a(I440
I441
tp2014
a(I441
I442
tp2015
a(I442
I443
tp2016
a(I443
I444
tp2017
a(I444
I445
tp2018
a(I445
I446
tp2019
a(I446
I447
tp2020
a(I447
I448
tp2021
a(I448
I449
tp2022
a(I449
I450
tp2023
a(I450
I451
tp2024
a(I451
I452
tp2025
a(I452
I453
tp2026
a(I453
I454
tp2027
a(I454
I455
tp2028
a(I455
I456
tp2029
a(I456
I457
tp2030
a(I457
I458
tp2031
a(I458
I459
tp2032
a(I459
I460
tp2033
a(I460
I461
tp2034
a(I461
I462
tp2035
a(I462
I463
tp2036
a(I463
I464
tp2037
a(I464
I465
tp2038
a(I465
I466
tp2039
a(I466
I467
tp2040
a(I467
I468
tp2041
a(I468
I469
tp2042
a(I469
I470
tp2043
a(I470
I471
tp2044
a(I471
I472
tp2045
a(I472
I473
tp2046
a(I473
I474
tp2047
a(I474
I475
tp2048
a(I475
I476
tp2049
a(I476
I477
tp2050
a(I477
I478
tp2051
a(I478
I479
tp2052
a(I479
I480
tp2053
a(I480
I481
tp2054
a(I481
I482
tp2055
a(I482
I483
tp2056
a(I483
I484
tp2057
a(I484
I485
tp2058
a(I485
I486
tp2059
a(I486
I487
tp2060
a(I487
I488
tp2061
a(I488
I489
tp2062
a(I489
I490
tp2063
a(I490
I491
tp2064
a(I491
I492
tp2065
a(I492
I493
tp2066
a(I493
I494
tp2067
a(I494
I495
tp2068
a(I495
I496
tp2069
a(I496
I497
tp2070
a(I497
I498
tp2071
a(I498
I499
tp2072
a(I499
I500
tp2073
a(I500
I501
tp2074
a(I501
I502
tp2075
a(I502
I503
tp2076
a(I503
I504
tp2077
a(I504
I505
tp2078
a(I505
I506
tp2079
a(I506
I507
tp2080
a(I507
I508
tp2081
a(I508
I509
tp2082
a(I509
I510
tp2083
a(I510
I511
tp2084
a(I511
I512
tp2085
asbssS'instance_generation_parameter'
p2086
(dp2087
I0
S'from_file'
p2088
sI1
S'from_file'
p2089
sI2
S'from_file'
p2090
sI3
S'from_file'
p2091
sI4
S'from_file'
p2092
sI5
S'from_file'
p2093
sI6
S'from_file'
p2094
ssS'contained_model_configurations'
p2095
c__builtin__
set
p2096
((lp2097
((S'Decision'
I00
t(S'FlowExtension'
I00
t(S'StrongLoopFreedom'
I00
ttp2098
atRp2099
sS'instance_storage_id'
p2100
S'hard_instances_8_8192'
p2101
sS'raw_instance_generation_parameters'
p2102
g2088
sS'instance_solutions'
p2103
(dp2104
I0
(dp2105
g2098
g1
(cnetwork_update.datamodel
NetworkUpdateInstanceSolution
p2106
g3
NtRp2107
(dp2108
S'status'
p2109
g1
(cnetwork_update.datamodel
GurobiStatus
p2110
g3
NtRp2111
(dp2112
g2109
I2
sS'runtime_gurobi'
p2113
F0.04919886589050293
sS'obj_gap'
p2114
F0
sS'obj_bound'
p2115
F3
sS'obj_value'
p2116
F3
sS'runtime_wall_clock'
p2117
F0.085741996765136719
sS'sol_count'
p2118
I2
sbsS'temporal_log'
p2119
g1
(cnetwork_update.datamodel
TemporalLog
p2120
g3
NtRp2121
(dp2122
S'start_time'
p2123
F1537124340.973454
sS'log_entries'
p2124
(lp2125
g1
(cnetwork_update.datamodel
LogEntry
p2126
g3
NtRp2127
(dp2128
S'objective_value'
p2129
F1e+100
sS'node_count'
p2130
F0
sS'objective_bound'
p2131
F0
sS'solution_count'
p2132
I0
sS'time'
p2133
F0.051510095596313477
sbag1
(g2126
g3
NtRp2134
(dp2135
g2129
F7
sg2130
F0
sg2131
F0.68965517241379304
sg2132
I1
sg2133
F0.074968099594116211
sbag1
(g2126
g3
NtRp2136
(dp2137
g2129
F3
sg2130
F1
sg2131
F3
sg2132
I2
sg2133
F0.085732936859130859
sbasS'current_entry'
p2138
I2
sbsS'solution_schedule'
p2139
(dp2140
I1
(lp2141
I1
aI2
aI3
aI4
asI2
(lp2142
I5
aI6
asI3
(lp2143
I7
asI4
(lp2144
sI5
(lp2145
sI6
(lp2146
sI7
(lp2147
ssbssI1
(dp2148
((S'Decision'
I00
t(S'FlowExtension'
I00
t(S'StrongLoopFreedom'
I00
ttp2149
g1
(g2106
g3
NtRp2150
(dp2151
g2109
g1
(g2110
g3
NtRp2152
(dp2153
g2109
I2
sg2113
F0.88036489486694336
sg2114
F0
sg2115
F4
sg2116
F4
sg2117
F0.97141194343566895
sg2118
I9
sbsg2119
g1
(g2120
g3
NtRp2154
(dp2155
g2123
F1537124340.971025
sg2124
(lp2156
g1
(g2126
g3
NtRp2157
(dp2158
g2129
F1e+100
sg2130
F0
sg2131
F0
sg2132
I0
sg2133
F0.13509297370910645
sbag1
(g2126
g3
NtRp2159
(dp2160
g2129
F15
sg2130
F0
sg2131
F0
sg2132
I0
sg2133
F0.13810396194458008
sbag1
(g2126
g3
NtRp2161
(dp2162
g2129
F14
sg2130
F0
sg2131
F1
sg2132
I2
sg2133
F0.25054812431335449
sbag1
(g2126
g3
NtRp2163
(dp2164
g2129
F13
sg2130
F0
sg2131
F1
sg2132
I3
sg2133
F0.53610801696777344
sbag1
(g2126
g3
NtRp2165
(dp2166
g2129
F12
sg2130
F0
sg2131
F2
sg2132
I4
sg2133
F0.63174796104431152
sbag1
(g2126
g3
NtRp2167
(dp2168
g2129
F11
sg2130
F0
sg2131
F2
sg2132
I5
sg2133
F0.64936709403991699
sbag1
(g2126
g3
NtRp2169
(dp2170
g2129
F10
sg2130
F0
sg2131
F2.0000000000000004
sg2132
I6
sg2133
F0.85729694366455078
sbag1
(g2126
g3
NtRp2171
(dp2172
g2129
F9
sg2130
F0
sg2131
F2.0000000000000004
sg2132
I7
sg2133
F0.9161229133605957
sbag1
(g2126
g3
NtRp2173
(dp2174
g2129
F5
sg2130
F0
sg2131
F2.0000000000000004
sg2132
I8
sg2133
F0.93133902549743652
sbag1
(g2126
g3
NtRp2175
(dp2176
g2129
F4
sg2130
F1
sg2131
F4
sg2132
I9
sg2133
F0.97140598297119141
sbasg2138
I9
sbsg2139
(dp2177
I1
(lp2178
I2
aI3
aI4
aI5
aI8
asI2
(lp2179
I6
aI9
aI10
aI11
aI12
asI3
(lp2180
I7
aI14
asI4
(lp2181
I1
aI13
aI15
asI5
(lp2182
sI6
(lp2183
sI7
(lp2184
sI8
(lp2185
sI9
(lp2186
sI10
(lp2187
sI11
(lp2188
sI12
(lp2189
sI13
(lp2190
sI14
(lp2191
sI15
(lp2192
ssbssI2
(dp2193
((S'Decision'
I00
t(S'FlowExtension'
I00
t(S'StrongLoopFreedom'
I00
ttp2194
g1
(g2106
g3
NtRp2195
(dp2196
g2109
g1
(g2110
g3
NtRp2197
(dp2198
g2109
I2
sg2113
F6.1590819358825684
sg2114
F0
sg2115
F4
sg2116
F4
sg2117
F6.52044677734375
sg2118
I4
sbsg2119
g1
(g2120
g3
NtRp2199
(dp2200
g2123
F1537124341.0699191
sg2124
(lp2201
g1
(g2126
g3
NtRp2202
(dp2203
g2129
F1e+100
sg2130
F0
sg2131
F0
sg2132
I0
sg2133
F0.58210492134094238
sbag1
(g2126
g3
NtRp2204
(dp2205
g2129
F31
sg2130
F0
sg2131
F0
sg2132
I1
sg2133
F0.6120297908782959
sbag1
(g2126
g3
NtRp2206
(dp2207
g2129
F31
sg2130
F0
sg2131
F1.9999999999999996
sg2132
I1
sg2133
F1.9708309173583984
sbag1
(g2126
g3
NtRp2208
(dp2209
g2129
F31
sg2130
F0
sg2131
F1.9999999999999996
sg2132
I1
sg2133
F2.8599708080291748
sbag1
(g2126
g3
NtRp2210
(dp2211
g2129
F31
sg2130
F80
sg2131
F1.9999999999999996
sg2132
I1
sg2133
F4.9866828918457031
sbag1
(g2126
g3
NtRp2212
(dp2213
g2129
F31
sg2130
F145
sg2131
F1.9999999999999996
sg2132
I1
sg2133
F5.2674169540405273
sbag1
(g2126
g3
NtRp2214
(dp2215
g2129
F17
sg2130
F209
sg2131
F2
sg2132
I2
sg2133
F5.5413608551025391
sbag1
(g2126
g3
NtRp2216
(dp2217
g2129
F6.0000000000000018
sg2130
F255
sg2131
F2
sg2132
I3
sg2133
F5.6987578868865967
sbag1
(g2126
g3
NtRp2218
(dp2219
g2129
F4
sg2130
F322
sg2131
F2.2358985989471587
sg2132
I4
sg2133
F5.9656128883361816
sbag1
(g2126
g3
NtRp2220
(dp2221
g2129
F4
sg2130
F389
sg2131
F4
sg2132
I4
sg2133
F6.5204408168792725
sbasg2138
I9
sbsg2139
(dp2222
I1
(lp2223
I1
aI8
aI14
aI16
asI2
(lp2224
I2
aI4
aI7
aI9
aI12
aI15
aI18
aI19
aI24
asI3
(lp2225
I3
aI6
aI20
aI26
aI28
asI4
(lp2226
I5
aI10
aI11
aI13
aI17
aI21
aI22
aI23
aI25
aI27
aI29
aI30
aI31
asI5
(lp2227
sI6
(lp2228
sI7
(lp2229
sI8
(lp2230
sI9
(lp2231
sI10
(lp2232
sI11
(lp2233
sI12
(lp2234
sI13
(lp2235
sI14
(lp2236
sI15
(lp2237
sI16
(lp2238
sI17
(lp2239
sI18
(lp2240
sI19
(lp2241
sI20
(lp2242
sI21
(lp2243
sI22
(lp2244
sI23
(lp2245
sI24
(lp2246
sI25
(lp2247
sI26
(lp2248
sI27
(lp2249
sI28
(lp2250
sI29
(lp2251
sI30
(lp2252
sI31
(lp2253
ssbssI3
(dp2254
((S'Decision'
I00
t(S'FlowExtension'
I00
t(S'StrongLoopFreedom'
I00
ttp2255
g1
(g2106
g3
NtRp2256
(dp2257
g2109
g1
(g2110
g3
NtRp2258
(dp2259
g2109
I2
sg2113
F85.987802028656006
sg2114
F0
sg2115
F3.9999999999999929
sg2116
F3.9999999999999929
sg2117
F86.743602991104126
sg2118
I10
sbsg2119
g1
(g2120
g3
NtRp2260
(dp2261
g2123
F1537124340.9729891
sg2124
(lp2262
g1
(g2126
g3
NtRp2263
(dp2264
g2129
F1e+100
sg2130
F0
sg2131
F0
sg2132
I0
sg2133
F1.237980842590332
sbag1
(g2126
g3
NtRp2265
(dp2266
g2129
F38
sg2130
F0
sg2131
F0
sg2132
I1
sg2133
F1.3131008148193359
sbag1
(g2126
g3
NtRp2267
(dp2268
g2129
F38
sg2130
F0
sg2131
F0.31234517207733398
sg2132
I1
sg2133
F2.3561849594116211
sbag1
(g2126
g3
NtRp2269
(dp2270
g2129
F38
sg2130
F0
sg2131
F0.56676287457439845
sg2132
I1
sg2133
F3.9677479267120361
sbag1
(g2126
g3
NtRp2271
(dp2272
g2129
F38
sg2130
F0
sg2131
F1.6560498232215244
sg2132
I1
sg2133
F4.5676639080047607
sbag1
(g2126
g3
NtRp2273
(dp2274
g2129
F38
sg2130
F0
sg2131
F1.6560498232215244
sg2132
I1
sg2133
F5.3750379085540771
sbag1
(g2126
g3
NtRp2275
(dp2276
g2129
F37
sg2130
F0
sg2131
F1.7978254684195918
sg2132
I2
sg2133
F5.9255650043487549
sbag1
(g2126
g3
NtRp2277
(dp2278
g2129
F37
sg2130
F0
sg2131
F1.7978254684195918
sg2132
I2
sg2133
F6.9954848289489746
sbag1
(g2126
g3
NtRp2279
(dp2280
g2129
F37
sg2130
F0
sg2131
F1.7978254684195918
sg2132
I2
sg2133
F7.0086328983306885
sbag1
(g2126
g3
NtRp2281
(dp2282
g2129
F37
sg2130
F0
sg2131
F1.7978254684195918
sg2132
I2
sg2133
F10.819218873977661
sbag1
(g2126
g3
NtRp2283
(dp2284
g2129
F37
sg2130
F2
sg2131
F1.7978254684195918
sg2132
I2
sg2133
F11.430747032165527
sbag1
(g2126
g3
NtRp2285
(dp2286
g2129
F37
sg2130
F10
sg2131
F1.7978254684195918
sg2132
I2
sg2133
F12.796700954437256
sbag1
(g2126
g3
NtRp2287
(dp2288
g2129
F37
sg2130
F22
sg2131
F1.7978254684195918
sg2132
I2
sg2133
F13.798305034637451
sbag1
(g2126
g3
NtRp2289
(dp2290
g2129
F37
sg2130
F38
sg2131
F1.7978254684195918
sg2132
I2
sg2133
F14.668215990066528
sbag1
(g2126
g3
NtRp2291
(dp2292
g2129
F37
sg2130
F81
sg2131
F1.8978256791605317
sg2132
I2
sg2133
F15.888137817382812
sbag1
(g2126
g3
NtRp2293
(dp2294
g2129
F37
sg2130
F157
sg2131
F1.897825679160581
sg2132
I2
sg2133
F16.862000942230225
sbag1
(g2126
g3
NtRp2295
(dp2296
g2129
F37
sg2130
F240
sg2131
F1.897825679160581
sg2132
I2
sg2133
F17.91848087310791
sbag1
(g2126
g3
NtRp2297
(dp2298
g2129
F37
sg2130
F393
sg2131
F1.897825679160581
sg2132
I2
sg2133
F18.95941686630249
sbag1
(g2126
g3
NtRp2299
(dp2300
g2129
F37
sg2130
F481
sg2131
F1.897825679160581
sg2132
I2
sg2133
F19.760782957077026
sbag1
(g2126
g3
NtRp2301
(dp2302
g2129
F37
sg2130
F612
sg2131
F1.897825679160581
sg2132
I2
sg2133
F20.840893030166626
sbag1
(g2126
g3
NtRp2303
(dp2304
g2129
F37
sg2130
F793
sg2131
F1.897825679160581
sg2132
I2
sg2133
F21.908061027526855
sbag1
(g2126
g3
NtRp2305
(dp2306
g2129
F37
sg2130
F907
sg2131
F1.8978256791605912
sg2132
I2
sg2133
F22.576864004135132
sbag1
(g2126
g3
NtRp2307
(dp2308
g2129
F37
sg2130
F953
sg2131
F1.8978256791605912
sg2132
I2
sg2133
F23.827426910400391
sbag1
(g2126
g3
NtRp2309
(dp2310
g2129
F37
sg2130
F1030
sg2131
F1.8978256791605912
sg2132
I2
sg2133
F24.272434949874878
sbag1
(g2126
g3
NtRp2311
(dp2312
g2129
F37
sg2130
F1111
sg2131
F1.8978256791605912
sg2132
I2
sg2133
F25.647961854934692
sbag1
(g2126
g3
NtRp2313
(dp2314
g2129
F37
sg2130
F1352
sg2131
F1.8978256791605912
sg2132
I2
sg2133
F26.836820840835571
sbag1
(g2126
g3
NtRp2315
(dp2316
g2129
F37
sg2130
F1547
sg2131
F1.8978256791605912
sg2132
I2
sg2133
F27.718707799911499
sbag1
(g2126
g3
NtRp2317
(dp2318
g2129
F37
sg2130
F1754
sg2131
F1.8978256791605912
sg2132
I2
sg2133
F28.620019912719727
sbag1
(g2126
g3
NtRp2319
(dp2320
g2129
F37
sg2130
F1961
sg2131
F1.8978256791605912
sg2132
I2
sg2133
F29.647352933883667
sbag1
(g2126
g3
NtRp2321
(dp2322
g2129
F37
sg2130
F2212
sg2131
F1.8978256791605912
sg2132
I2
sg2133
F30.757741928100586
sbag1
(g2126
g3
NtRp2323
(dp2324
g2129
F37
sg2130
F2414
sg2131
F1.8978256791605912
sg2132
I2
sg2133
F31.915639877319336
sbag1
(g2126
g3
NtRp2325
(dp2326
g2129
F37
sg2130
F2432
sg2131
F1.8978256791605912
sg2132
I2
sg2133
F32.567564964294434
sbag1
(g2126
g3
NtRp2327
(dp2328
g2129
F36
sg2130
F2495
sg2131
F1.8978256791605912
sg2132
I3
sg2133
F32.570535898208618
sbag1
(g2126
g3
NtRp2329
(dp2330
g2129
F36
sg2130
F2553
sg2131
F2.0000000000000004
sg2132
I3
sg2133
F33.569900035858154
sbag1
(g2126
g3
NtRp2331
(dp2332
g2129
F36
sg2130
F2730
sg2131
F2.0000000000000004
sg2132
I3
sg2133
F34.572245836257935
sbag1
(g2126
g3
NtRp2333
(dp2334
g2129
F36
sg2130
F2731
sg2131
F2.0000000000000004
sg2132
I3
sg2133
F40.16501784324646
sbag1
(g2126
g3
NtRp2335
(dp2336
g2129
F34
sg2130
F2787
sg2131
F2.0000000000000004
sg2132
I4
sg2133
F40.167526006698608
sbag1
(g2126
g3
NtRp2337
(dp2338
g2129
F34
sg2130
F2820
sg2131
F2.0000000000000004
sg2132
I4
sg2133
F41.26146388053894
sbag1
(g2126
g3
NtRp2339
(dp2340
g2129
F33
sg2130
F2962
sg2131
F2.0000000000000004
sg2132
I5
sg2133
F41.265406847000122
sbag1
(g2126
g3
NtRp2341
(dp2342
g2129
F19
sg2130
F2981
sg2131
F2.0000000000000004
sg2132
I6
sg2133
F41.27851390838623
sbag1
(g2126
g3
NtRp2343
(dp2344
g2129
F19
sg2130
F3028
sg2131
F2.0000000000000004
sg2132
I6
sg2133
F43.460011005401611
sbag1
(g2126
g3
NtRp2345
(dp2346
g2129
F18.000000000000004
sg2130
F3044
sg2131
F2.0000000000000004
sg2132
I7
sg2133
F43.462371826171875
sbag1
(g2126
g3
NtRp2347
(dp2348
g2129
F16.999999999999996
sg2130
F3078
sg2131
F2.0000000000000004
sg2132
I8
sg2133
F43.465396881103516
sbag1
(g2126
g3
NtRp2349
(dp2350
g2129
F16.999999999999996
sg2130
F3084
sg2131
F2.0000000000000004
sg2132
I8
sg2133
F51.967147827148438
sbag1
(g2126
g3
NtRp2351
(dp2352
g2129
F16.999999999999996
sg2130
F3085
sg2131
F2.0000000000000004
sg2132
I8
sg2133
F52.643329858779907
sbag1
(g2126
g3
NtRp2353
(dp2354
g2129
F16.999999999999996
sg2130
F3089
sg2131
F2.0000000000000004
sg2132
I8
sg2133
F53.877450942993164
sbag1
(g2126
g3
NtRp2355
(dp2356
g2129
F16.999999999999996
sg2130
F3089
sg2131
F2.0000000000000004
sg2132
I8
sg2133
F54.138844966888428
sbag1
(g2126
g3
NtRp2357
(dp2358
g2129
F16.999999999999996
sg2130
F3091
sg2131
F2.0000000000000004
sg2132
I8
sg2133
F55.557804822921753
sbag1
(g2126
g3
NtRp2359
(dp2360
g2129
F16.999999999999996
sg2130
F3095
sg2131
F2.0000000000000004
sg2132
I8
sg2133
F56.728296995162964
sbag1
(g2126
g3
NtRp2361
(dp2362
g2129
F16.999999999999996
sg2130
F3148
sg2131
F2.0000000000000004
sg2132
I8
sg2133
F57.976167917251587
sbag1
(g2126
g3
NtRp2363
(dp2364
g2129
F16.999999999999996
sg2130
F3198
sg2131
F2.0000000000000004
sg2132
I8
sg2133
F58.882701873779297
sbag1
(g2126
g3
NtRp2365
(dp2366
g2129
F16.999999999999996
sg2130
F3312
sg2131
F2.0000000000000004
sg2132
I8
sg2133
F59.669843912124634
sbag1
(g2126
g3
NtRp2367
(dp2368
g2129
F16.999999999999996
sg2130
F3454
sg2131
F2.0000000000000004
sg2132
I8
sg2133
F60.983047962188721
sbag1
(g2126
g3
NtRp2369
(dp2370
g2129
F16.999999999999996
sg2130
F3518
sg2131
F2.0000000000000004
sg2132
I8
sg2133
F61.241850852966309
sbag1
(g2126
g3
NtRp2371
(dp2372
g2129
F14.999999999999973
sg2130
F3518
sg2131
F2.0000000000000004
sg2132
I8
sg2133
F61.242552995681763
sbag1
(g2126
g3
NtRp2373
(dp2374
g2129
F15
sg2130
F3531
sg2131
F2.0000000000000004
sg2132
I9
sg2133
F61.679895877838135
sbag1
(g2126
g3
NtRp2375
(dp2376
g2129
F15
sg2130
F3681
sg2131
F2.0000000000000004
sg2132
I9
sg2133
F62.942680835723877
sbag1
(g2126
g3
NtRp2377
(dp2378
g2129
F15
sg2130
F3708
sg2131
F2.0000000000000004
sg2132
I9
sg2133
F63.099592924118042
sbag1
(g2126
g3
NtRp2379
(dp2380
g2129
F13.999999999999975
sg2130
F3708
sg2131
F2.0000000000000004
sg2132
I9
sg2133
F63.100303888320923
sbag1
(g2126
g3
NtRp2381
(dp2382
g2129
F14
sg2130
F3901
sg2131
F2.0000000000000004
sg2132
I10
sg2133
F63.811839818954468
sbag1
(g2126
g3
NtRp2383
(dp2384
g2129
F12.999999999999977
sg2130
F3901
sg2131
F2.0000000000000004
sg2132
I10
sg2133
F63.812537908554077
sbag1
(g2126
g3
NtRp2385
(dp2386
g2129
F13
sg2130
F3925
sg2131
F2.0000000000000004
sg2132
I11
sg2133
F63.813354969024658
sbag1
(g2126
g3
NtRp2387
(dp2388
g2129
F13
sg2130
F4145
sg2131
F2.0000000000000004
sg2132
I11
sg2133
F64.816480875015259
sbag1
(g2126
g3
NtRp2389
(dp2390
g2129
F13
sg2130
F4283
sg2131
F2.0000000000000004
sg2132
I11
sg2133
F65.725093841552734
sbag1
(g2126
g3
NtRp2391
(dp2392
g2129
F11.999999999999979
sg2130
F4283
sg2131
F2.0000000000000004
sg2132
I11
sg2133
F65.725811958312988
sbag1
(g2126
g3
NtRp2393
(dp2394
g2129
F12
sg2130
F4329
sg2131
F2.0000000000000004
sg2132
I12
sg2133
F65.726925849914551
sbag1
(g2126
g3
NtRp2395
(dp2396
g2129
F12
sg2130
F4624
sg2131
F2.0000000000000004
sg2132
I12
sg2133
F66.820581912994385
sbag1
(g2126
g3
NtRp2397
(dp2398
g2129
F12
sg2130
F4708
sg2131
F2.0000000000000004
sg2132
I12
sg2133
F67.62495493888855
sbag1
(g2126
g3
NtRp2399
(dp2400
g2129
F12
sg2130
F4815
sg2131
F2.0000000000000004
sg2132
I12
sg2133
F68.816325902938843
sbag1
(g2126
g3
NtRp2401
(dp2402
g2129
F12
sg2130
F5142
sg2131
F2.0000000000000004
sg2132
I12
sg2133
F69.955955982208252
sbag1
(g2126
g3
NtRp2403
(dp2404
g2129
F12
sg2130
F5217
sg2131
F2.0000000000000004
sg2132
I12
sg2133
F70.463200807571411
sbag1
(g2126
g3
NtRp2405
(dp2406
g2129
F10.999999999999982
sg2130
F5217
sg2131
F2.0000000000000004
sg2132
I12
sg2133
F70.463878870010376
sbag1
(g2126
g3
NtRp2407
(dp2408
g2129
F11
sg2130
F5268
sg2131
F2.0000000000000004
sg2132
I13
sg2133
F70.991209983825684
sbag1
(g2126
g3
NtRp2409
(dp2410
g2129
F9.9999999999999822
sg2130
F5268
sg2131
F2.0000000000000004
sg2132
I13
sg2133
F70.99187183380127
sbag1
(g2126
g3
NtRp2411
(dp2412
g2129
F10
sg2130
F5318
sg2131
F2.0000000000000004
sg2132
I14
sg2133
F70.992841005325317
sbag1
(g2126
g3
NtRp2413
(dp2414
g2129
F10
sg2130
F5412
sg2131
F2.0000000000000004
sg2132
I14
sg2133
F71.736176013946533
sbag1
(g2126
g3
NtRp2415
(dp2416
g2129
F8.999999999999984
sg2130
F5412
sg2131
F2.0000000000000004
sg2132
I14
sg2133
F71.736899852752686
sbag1
(g2126
g3
NtRp2417
(dp2418
g2129
F9
sg2130
F5413
sg2131
F2.0000000000000004
sg2132
I15
sg2133
F71.737771034240723
sbag1
(g2126
g3
NtRp2419
(dp2420
g2129
F9
sg2130
F5491
sg2131
F2.0000000000000004
sg2132
I15
sg2133
F72.554481983184814
sbag1
(g2126
g3
NtRp2421
(dp2422
g2129
F6.9999999999999876
sg2130
F5491
sg2131
F2.0000000000000004
sg2132
I15
sg2133
F72.55518102645874
sbag1
(g2126
g3
NtRp2423
(dp2424
g2129
F7
sg2130
F5544
sg2131
F2.0000000000000004
sg2132
I16
sg2133
F72.556530952453613
sbag1
(g2126
g3
NtRp2425
(dp2426
g2129
F7
sg2130
F5545
sg2131
F2.0000000000000004
sg2132
I16
sg2133
F73.035153865814209
sbag1
(g2126
g3
NtRp2427
(dp2428
g2129
F5.9999999999999893
sg2130
F5545
sg2131
F2.0000000000000004
sg2132
I16
sg2133
F73.035874843597412
sbag1
(g2126
g3
NtRp2429
(dp2430
g2129
F6
sg2130
F5780
sg2131
F2.0000000000000004
sg2132
I17
sg2133
F73.535004854202271
sbag1
(g2126
g3
NtRp2431
(dp2432
g2129
F6
sg2130
F5875
sg2131
F2.0000000000000004
sg2132
I17
sg2133
F74.010573863983154
sbag1
(g2126
g3
NtRp2433
(dp2434
g2129
F4.9999999999999911
sg2130
F5875
sg2131
F2.0000000000000004
sg2132
I17
sg2133
F74.01127290725708
sbag1
(g2126
g3
NtRp2435
(dp2436
g2129
F5
sg2130
F6065
sg2131
F2.0000000000000475
sg2132
I18
sg2133
F74.509305000305176
sbag1
(g2126
g3
NtRp2437
(dp2438
g2129
F5
sg2130
F6571
sg2131
F3
sg2132
I18
sg2133
F75.917771816253662
sbag1
(g2126
g3
NtRp2439
(dp2440
g2129
F5
sg2130
F6969
sg2131
F3
sg2132
I18
sg2133
F76.776466846466064
sbag1
(g2126
g3
NtRp2441
(dp2442
g2129
F5
sg2130
F7333
sg2131
F3
sg2132
I18
sg2133
F77.709904909133911
sbag1
(g2126
g3
NtRp2443
(dp2444
g2129
F5
sg2130
F7725
sg2131
F3
sg2132
I18
sg2133
F78.597154855728149
sbag1
(g2126
g3
NtRp2445
(dp2446
g2129
F5
sg2130
F8110
sg2131
F3
sg2132
I18
sg2133
F79.504993915557861
sbag1
(g2126
g3
NtRp2447
(dp2448
g2129
F5
sg2130
F8476
sg2131
F3.0000000000000053
sg2132
I18
sg2133
F80.421183824539185
sbag1
(g2126
g3
NtRp2449
(dp2450
g2129
F5
sg2130
F8863
sg2131
F3.0000000000000053
sg2132
I18
sg2133
F81.310026884078979
sbag1
(g2126
g3
NtRp2451
(dp2452
g2129
F5
sg2130
F9210
sg2131
F3.0000000000000058
sg2132
I18
sg2133
F82.263306856155396
sbag1
(g2126
g3
NtRp2453
(dp2454
g2129
F5
sg2130
F9607
sg2131
F3.0000000000000058
sg2132
I18
sg2133
F83.305686950683594
sbag1
(g2126
g3
NtRp2455
(dp2456
g2129
F5
sg2130
F10092
sg2131
F3.0000000000000058
sg2132
I18
sg2133
F84.312544822692871
sbag1
(g2126
g3
NtRp2457
(dp2458
g2129
F5
sg2130
F10619
sg2131
F3.0000000000000058
sg2132
I18
sg2133
F85.348117828369141
sbag1
(g2126
g3
NtRp2459
(dp2460
g2129
F3.9999999999999929
sg2130
F10620
sg2131
F3.9999999999999929
sg2132
I10
sg2133
F86.743589878082275
sbasg2138
I98
sbsg2139
(dp2461
I1
(lp2462
I1
aI3
aI4
aI6
aI8
aI14
aI17
aI24
aI27
aI30
aI31
aI32
asI2
(lp2463
I2
aI5
aI7
aI10
aI11
aI12
aI13
aI15
aI16
aI18
aI19
aI20
aI21
aI22
aI23
aI25
aI26
aI28
aI29
aI33
aI34
aI35
aI36
aI38
aI39
aI40
aI41
aI42
aI43
aI44
aI45
aI46
aI47
aI48
asI3
(lp2464
I9
aI49
aI50
aI56
asI4
(lp2465
I37
aI51
aI52
aI53
aI54
aI55
aI57
aI58
aI59
aI60
aI61
aI62
aI63
asI5
(lp2466
sI6
(lp2467
sI7
(lp2468
sI8
(lp2469
sI9
(lp2470
sI10
(lp2471
sI11
(lp2472
sI12
(lp2473
sI13
(lp2474
sI14
(lp2475
sI15
(lp2476
sI16
(lp2477
sI17
(lp2478
sI18
(lp2479
sI19
(lp2480
sI20
(lp2481
sI21
(lp2482
sI22
(lp2483
sI23
(lp2484
sI24
(lp2485
sI25
(lp2486
sI26
(lp2487
sI27
(lp2488
sI28
(lp2489
sI29
(lp2490
sI30
(lp2491
sI31
(lp2492
sI32
(lp2493
sI33
(lp2494
sI34
(lp2495
sI35
(lp2496
sI36
(lp2497
sI37
(lp2498
sI38
(lp2499
ssbssI4
(dp2500
((S'Decision'
I00
t(S'FlowExtension'
I00
t(S'StrongLoopFreedom'
I00
ttp2501
g1
(g2106
g3
NtRp2502
(dp2503
g2109
g1
(g2110
g3
NtRp2504
(dp2505
g2109
I2
sg2113
F718.32963895797729
sg2114
F0
sg2115
F3.9999999999999929
sg2116
F3.9999999999999929
sg2117
F719.82820701599121
sg2118
I10
sbsg2119
g1
(g2120
g3
NtRp2506
(dp2507
g2123
F1537124340.9733529
sg2124
(lp2508
g1
(g2126
g3
NtRp2509
(dp2510
g2129
F1e+100
sg2130
F0
sg2131
F0
sg2132
I0
sg2133
F2.4431161880493164
sbag1
(g2126
g3
NtRp2511
(dp2512
g2129
F1e+100
sg2130
F0
sg2131
F0.29850758560024421
sg2132
I0
sg2133
F6.1761829853057861
sbag1
(g2126
g3
NtRp2513
(dp2514
g2129
F43
sg2130
F0
sg2131
F0.29850758560024421
sg2132
I1
sg2133
F8.1576411724090576
sbag1
(g2126
g3
NtRp2515
(dp2516
g2129
F43
sg2130
F0
sg2131
F0.30059432247108103
sg2132
I1
sg2133
F9.7572090625762939
sbag1
(g2126
g3
NtRp2517
(dp2518
g2129
F43
sg2130
F0
sg2131
F0.87127772729283071
sg2132
I1
sg2133
F10.601802110671997
sbag1
(g2126
g3
NtRp2519
(dp2520
g2129
F43
sg2130
F0
sg2131
F1.3293294577747341
sg2132
I1
sg2133
F11.978347063064575
sbag1
(g2126
g3
NtRp2521
(dp2522
g2129
F43
sg2130
F0
sg2131
F1.3293294577747341
sg2132
I1
sg2133
F12.744749069213867
sbag1
(g2126
g3
NtRp2523
(dp2524
g2129
F43
sg2130
F0
sg2131
F1.3293294577747341
sg2132
I1
sg2133
F16.507704019546509
sbag1
(g2126
g3
NtRp2525
(dp2526
g2129
F43
sg2130
F0
sg2131
F1.3293294577747341
sg2132
I1
sg2133
F22.751159191131592
sbag1
(g2126
g3
NtRp2527
(dp2528
g2129
F43
sg2130
F0
sg2131
F1.3293294577747341
sg2132
I1
sg2133
F24.863521099090576
sbag1
(g2126
g3
NtRp2529
(dp2530
g2129
F43
sg2130
F2
sg2131
F1.3293294577747341
sg2132
I1
sg2133
F28.933874130249023
sbag1
(g2126
g3
NtRp2531
(dp2532
g2129
F43
sg2130
F6
sg2131
F1.3293294577747341
sg2132
I1
sg2133
F33.019049167633057
sbag1
(g2126
g3
NtRp2533
(dp2534
g2129
F43
sg2130
F10
sg2131
F1.3293294577747341
sg2132
I1
sg2133
F35.990291118621826
sbag1
(g2126
g3
NtRp2535
(dp2536
g2129
F43
sg2130
F14
sg2131
F1.3293294577747341
sg2132
I1
sg2133
F37.328217029571533
sbag1
(g2126
g3
NtRp2537
(dp2538
g2129
F43
sg2130
F22
sg2131
F1.3293294577747341
sg2132
I1
sg2133
F40.924781084060669
sbag1
(g2126
g3
NtRp2539
(dp2540
g2129
F43
sg2130
F31
sg2131
F1.3293294577747341
sg2132
I1
sg2133
F43.545628070831299
sbag1
(g2126
g3
NtRp2541
(dp2542
g2129
F42
sg2130
F34
sg2131
F1.3293294577747341
sg2132
I2
sg2133
F43.552250146865845
sbag1
(g2126
g3
NtRp2543
(dp2544
g2129
F42
sg2130
F48
sg2131
F1.3293294577747341
sg2132
I2
sg2133
F46.722411155700684
sbag1
(g2126
g3
NtRp2545
(dp2546
g2129
F42
sg2130
F57
sg2131
F1.3293294577747341
sg2132
I2
sg2133
F47.79273509979248
sbag1
(g2126
g3
NtRp2547
(dp2548
g2129
F42
sg2130
F102
sg2131
F1.8976228484989195
sg2132
I2
sg2133
F49.822138071060181
sbag1
(g2126
g3
NtRp2549
(dp2550
g2129
F42
sg2130
F115
sg2131
F1.8976228484989195
sg2132
I2
sg2133
F50.552714109420776
sbag1
(g2126
g3
NtRp2551
(dp2552
g2129
F23
sg2130
F120
sg2131
F2
sg2132
I3
sg2133
F50.566518068313599
sbag1
(g2126
g3
NtRp2553
(dp2554
g2129
F23
sg2130
F127
sg2131
F2
sg2132
I3
sg2133
F53.182482004165649
sbag1
(g2126
g3
NtRp2555
(dp2556
g2129
F23
sg2130
F192
sg2131
F2
sg2132
I3
sg2133
F55.656479120254517
sbag1
(g2126
g3
NtRp2557
(dp2558
g2129
F23
sg2130
F399
sg2131
F2
sg2132
I3
sg2133
F58.787314176559448
sbag1
(g2126
g3
NtRp2559
(dp2560
g2129
F23
sg2130
F459
sg2131
F2
sg2132
I3
sg2133
F61.568892002105713
sbag1
(g2126
g3
NtRp2561
(dp2562
g2129
F23
sg2130
F556
sg2131
F2
sg2132
I3
sg2133
F64.631365060806274
sbag1
(g2126
g3
NtRp2563
(dp2564
g2129
F23
sg2130
F651
sg2131
F2
sg2132
I3
sg2133
F67.698005199432373
sbag1
(g2126
g3
NtRp2565
(dp2566
g2129
F23
sg2130
F748
sg2131
F2
sg2132
I3
sg2133
F71.034960985183716
sbag1
(g2126
g3
NtRp2567
(dp2568
g2129
F23
sg2130
F856
sg2131
F2
sg2132
I3
sg2133
F74.690596103668213
sbag1
(g2126
g3
NtRp2569
(dp2570
g2129
F23
sg2130
F1022
sg2131
F2
sg2132
I3
sg2133
F78.428657054901123
sbag1
(g2126
g3
NtRp2571
(dp2572
g2129
F23
sg2130
F1025
sg2131
F2
sg2132
I3
sg2133
F692.75508809089661
sbag1
(g2126
g3
NtRp2573
(dp2574
g2129
F23
sg2130
F1025
sg2131
F2
sg2132
I3
sg2133
F695.20303201675415
sbag1
(g2126
g3
NtRp2575
(dp2576
g2129
F21
sg2130
F1026
sg2131
F2
sg2132
I4
sg2133
F695.82432508468628
sbag1
(g2126
g3
NtRp2577
(dp2578
g2129
F21
sg2130
F1027
sg2131
F2
sg2132
I4
sg2133
F696.91443014144897
sbag1
(g2126
g3
NtRp2579
(dp2580
g2129
F21
sg2130
F1028
sg2131
F2
sg2132
I4
sg2133
F697.06109619140625
sbag1
(g2126
g3
NtRp2581
(dp2582
g2129
F19
sg2130
F1029
sg2131
F2
sg2132
I5
sg2133
F697.61593008041382
sbag1
(g2126
g3
NtRp2583
(dp2584
g2129
F19
sg2130
F1030
sg2131
F2
sg2132
I5
sg2133
F700.06498599052429
sbag1
(g2126
g3
NtRp2585
(dp2586
g2129
F19
sg2130
F1031
sg2131
F2
sg2132
I5
sg2133
F701.57906603813171
sbag1
(g2126
g3
NtRp2587
(dp2588
g2129
F19
sg2130
F1033
sg2131
F2
sg2132
I6
sg2133
F702.83624601364136
sbag1
(g2126
g3
NtRp2589
(dp2590
g2129
F18
sg2130
F1033
sg2131
F2
sg2132
I6
sg2133
F702.93722915649414
sbag1
(g2126
g3
NtRp2591
(dp2592
g2129
F17
sg2130
F1033
sg2131
F2
sg2132
I7
sg2133
F702.98700904846191
sbag1
(g2126
g3
NtRp2593
(dp2594
g2129
F17
sg2130
F1034
sg2131
F2
sg2132
I8
sg2133
F703.29162502288818
sbag1
(g2126
g3
NtRp2595
(dp2596
g2129
F14.000000000000002
sg2130
F1036
sg2131
F2
sg2132
I9
sg2133
F703.9281370639801
sbag1
(g2126
g3
NtRp2597
(dp2598
g2129
F14.000000000000002
sg2130
F1036
sg2131
F2
sg2132
I9
sg2133
F705.17175197601318
sbag1
(g2126
g3
NtRp2599
(dp2600
g2129
F14.000000000000002
sg2130
F1037
sg2131
F2
sg2132
I9
sg2133
F707.11865901947021
sbag1
(g2126
g3
NtRp2601
(dp2602
g2129
F14.000000000000002
sg2130
F1038
sg2131
F2
sg2132
I9
sg2133
F708.62622213363647
sbag1
(g2126
g3
NtRp2603
(dp2604
g2129
F14.000000000000002
sg2130
F1039
sg2131
F2
sg2132
I9
sg2133
F710.08521699905396
sbag1
(g2126
g3
NtRp2605
(dp2606
g2129
F13.000000000000004
sg2130
F1039
sg2131
F2
sg2132
I9
sg2133
F710.5384840965271
sbag1
(g2126
g3
NtRp2607
(dp2608
g2129
F14.000000000000002
sg2130
F1039
sg2131
F2
sg2132
I10
sg2133
F710.54124712944031
sbag1
(g2126
g3
NtRp2609
(dp2610
g2129
F13.000000000000027
sg2130
F1041
sg2131
F2
sg2132
I11
sg2133
F710.54173803329468
sbag1
(g2126
g3
NtRp2611
(dp2612
g2129
F13.000000000000027
sg2130
F1041
sg2131
F2
sg2132
I11
sg2133
F711.00821709632874
sbag1
(g2126
g3
NtRp2613
(dp2614
g2129
F13.000000000000027
sg2130
F1042
sg2131
F2
sg2132
I11
sg2133
F712.68364000320435
sbag1
(g2126
g3
NtRp2615
(dp2616
g2129
F13.000000000000027
sg2130
F1043
sg2131
F2
sg2132
I11
sg2133
F713.19923400878906
sbag1
(g2126
g3
NtRp2617
(dp2618
g2129
F13.000000000000027
sg2130
F1044
sg2131
F2
sg2132
I11
sg2133
F714.12123799324036
sbag1
(g2126
g3
NtRp2619
(dp2620
g2129
F11.999999999999979
sg2130
F1044
sg2131
F2
sg2132
I11
sg2133
F714.3584520816803
sbag1
(g2126
g3
NtRp2621
(dp2622
g2129
F10.99999999999998
sg2130
F1044
sg2131
F2
sg2132
I12
sg2133
F714.65280318260193
sbag1
(g2126
g3
NtRp2623
(dp2624
g2129
F11
sg2130
F1046
sg2131
F2
sg2132
I13
sg2133
F714.65484404563904
sbag1
(g2126
g3
NtRp2625
(dp2626
g2129
F11
sg2130
F1046
sg2131
F2
sg2132
I13
sg2133
F715.05340504646301
sbag1
(g2126
g3
NtRp2627
(dp2628
g2129
F9.0000000000000195
sg2130
F1046
sg2131
F2
sg2132
I13
sg2133
F715.10075712203979
sbag1
(g2126
g3
NtRp2629
(dp2630
g2129
F9.0000000000000355
sg2130
F1047
sg2131
F2
sg2132
I14
sg2133
F715.82402515411377
sbag1
(g2126
g3
NtRp2631
(dp2632
g2129
F9.0000000000000355
sg2130
F1048
sg2131
F2
sg2132
I14
sg2133
F716.81871008872986
sbag1
(g2126
g3
NtRp2633
(dp2634
g2129
F9.0000000000000355
sg2130
F1050
sg2131
F2
sg2132
I14
sg2133
F717.99401998519897
sbag1
(g2126
g3
NtRp2635
(dp2636
g2129
F7.9999999999999858
sg2130
F1050
sg2131
F2
sg2132
I14
sg2133
F718.32335519790649
sbag1
(g2126
g3
NtRp2637
(dp2638
g2129
F8
sg2130
F1052
sg2131
F2
sg2132
I15
sg2133
F718.53691220283508
sbag1
(g2126
g3
NtRp2639
(dp2640
g2129
F5.9999999999999893
sg2130
F1052
sg2131
F2
sg2132
I15
sg2133
F718.56459498405457
sbag1
(g2126
g3
NtRp2641
(dp2642
g2129
F5
sg2130
F1052
sg2131
F2
sg2132
I16
sg2133
F718.58017206192017
sbag1
(g2126
g3
NtRp2643
(dp2644
g2129
F5.0000000000000089
sg2130
F1053
sg2131
F2
sg2132
I17
sg2133
F718.87895107269287
sbag1
(g2126
g3
NtRp2645
(dp2646
g2129
F5.0000000000000089
sg2130
F1057
sg2131
F2
sg2132
I17
sg2133
F719.67373013496399
sbag1
(g2126
g3
NtRp2647
(dp2648
g2129
F3.9999999999999929
sg2130
F1057
sg2131
F2
sg2132
I17
sg2133
F719.73375797271729
sbag1
(g2126
g3
NtRp2649
(dp2650
g2129
F4
sg2130
F1061
sg2131
F3
sg2132
I18
sg2133
F719.80573606491089
sbag1
(g2126
g3
NtRp2651
(dp2652
g2129
F3.9999999999999929
sg2130
F1061
sg2131
F3.9999999999999929
sg2132
I10
sg2133
F719.82819604873657
sbasg2138
I71
sbsg2139
(dp2653
I1
(lp2654
I2
aI3
aI4
aI5
aI7
aI8
aI9
aI10
aI11
aI12
aI13
aI14
aI15
aI16
aI18
aI19
aI20
aI21
aI22
aI23
aI24
aI25
aI26
aI27
aI28
aI29
aI30
aI31
aI32
aI34
aI35
aI36
aI37
aI38
aI39
aI40
aI41
aI42
aI43
aI44
aI45
aI46
aI47
aI48
aI49
aI50
aI51
aI52
aI53
aI54
aI55
aI56
aI57
aI58
aI59
aI60
aI61
aI62
aI63
aI64
asI2
(lp2655
I6
aI17
aI66
aI67
aI69
aI70
aI72
aI74
aI75
aI76
aI77
aI78
aI79
aI80
aI85
aI86
aI87
aI88
aI89
aI90
aI91
aI94
aI95
aI96
asI3
(lp2656
I1
aI33
aI99
aI101
aI102
aI103
aI104
aI105
aI107
aI108
aI109
aI110
aI111
aI112
asI4
(lp2657
I65
aI68
aI71
aI73
aI81
aI82
aI83
aI84
aI92
aI93
aI97
aI98
aI100
aI106
aI113
aI114
aI115
aI116
aI117
aI118
aI119
aI120
aI121
aI122
aI123
aI124
aI125
aI126
aI127
asI5
(lp2658
sI6
(lp2659
sI7
(lp2660
sI8
(lp2661
sI9
(lp2662
sI10
(lp2663
sI11
(lp2664
sI12
(lp2665
sI13
(lp2666
sI14
(lp2667
sI15
(lp2668
sI16
(lp2669
sI17
(lp2670
sI18
(lp2671
sI19
(lp2672
sI20
(lp2673
sI21
(lp2674
sI22
(lp2675
sI23
(lp2676
sI24
(lp2677
sI25
(lp2678
sI26
(lp2679
sI27
(lp2680
sI28
(lp2681
sI29
(lp2682
sI30
(lp2683
sI31
(lp2684
sI32
(lp2685
sI33
(lp2686
sI34
(lp2687
sI35
(lp2688
sI36
(lp2689
sI37
(lp2690
sI38
(lp2691
sI39
(lp2692
sI40
(lp2693
sI41
(lp2694
sI42
(lp2695
sI43
(lp2696
sI44
(lp2697
ssbssI5
(dp2698
((S'Decision'
I00
t(S'FlowExtension'
I00
t(S'StrongLoopFreedom'
I00
ttp2699
g1
(g2106
g3
NtRp2700
(dp2701
g2109
g1
(g2110
g3
NtRp2702
(dp2703
g2109
I2
sg2113
F1028.0476369857788
sg2114
F0
sg2115
F4
sg2116
F4
sg2117
F1031.3164489269257
sg2118
I10
sbsg2119
g1
(g2120
g3
NtRp2704
(dp2705
g2123
F1537124340.976835
sg2124
(lp2706
g1
(g2126
g3
NtRp2707
(dp2708
g2129
F1e+100
sg2130
F0
sg2131
F0
sg2132
I0
sg2133
F5.8066508769989014
sbag1
(g2126
g3
NtRp2709
(dp2710
g2129
F1e+100
sg2130
F0
sg2131
F0
sg2132
I0
sg2133
F6.1790900230407715
sbag1
(g2126
g3
NtRp2711
(dp2712
g2129
F1e+100
sg2130
F0
sg2131
F1
sg2132
I0
sg2133
F19.698956966400146
sbag1
(g2126
g3
NtRp2713
(dp2714
g2129
F39
sg2130
F0
sg2131
F1
sg2132
I0
sg2133
F20.699286937713623
sbag1
(g2126
g3
NtRp2715
(dp2716
g2129
F39
sg2130
F0
sg2131
F1
sg2132
I1
sg2133
F22.360509872436523
sbag1
(g2126
g3
NtRp2717
(dp2718
g2129
F39
sg2130
F0
sg2131
F1
sg2132
I1
sg2133
F25.968756914138794
sbag1
(g2126
g3
NtRp2719
(dp2720
g2129
F39
sg2130
F0
sg2131
F1
sg2132
I1
sg2133
F26.931823015213013
sbag1
(g2126
g3
NtRp2721
(dp2722
g2129
F39
sg2130
F0
sg2131
F1
sg2132
I1
sg2133
F27.26161789894104
sbag1
(g2126
g3
NtRp2723
(dp2724
g2129
F39
sg2130
F0
sg2131
F1
sg2132
I1
sg2133
F28.707391977310181
sbag1
(g2126
g3
NtRp2725
(dp2726
g2129
F39
sg2130
F0
sg2131
F1
sg2132
I1
sg2133
F40.472946882247925
sbag1
(g2126
g3
NtRp2727
(dp2728
g2129
F39
sg2130
F0
sg2131
F1
sg2132
I1
sg2133
F43.967478036880493
sbag1
(g2126
g3
NtRp2729
(dp2730
g2129
F39
sg2130
F0
sg2131
F1
sg2132
I1
sg2133
F63.30420994758606
sbag1
(g2126
g3
NtRp2731
(dp2732
g2129
F39
sg2130
F0
sg2131
F1
sg2132
I1
sg2133
F64.391891956329346
sbag1
(g2126
g3
NtRp2733
(dp2734
g2129
F39
sg2130
F0
sg2131
F1
sg2132
I1
sg2133
F94.82163405418396
sbag1
(g2126
g3
NtRp2735
(dp2736
g2129
F39
sg2130
F0
sg2131
F1
sg2132
I1
sg2133
F96.755040884017944
sbag1
(g2126
g3
NtRp2737
(dp2738
g2129
F39
sg2130
F0
sg2131
F1
sg2132
I1
sg2133
F97.467884063720703
sbag1
(g2126
g3
NtRp2739
(dp2740
g2129
F39
sg2130
F0
sg2131
F1
sg2132
I1
sg2133
F135.87119507789612
sbag1
(g2126
g3
NtRp2741
(dp2742
g2129
F39
sg2130
F0
sg2131
F1
sg2132
I1
sg2133
F144.09208488464355
sbag1
(g2126
g3
NtRp2743
(dp2744
g2129
F39
sg2130
F0
sg2131
F1
sg2132
I1
sg2133
F145.2950758934021
sbag1
(g2126
g3
NtRp2745
(dp2746
g2129
F39
sg2130
F0
sg2131
F1
sg2132
I1
sg2133
F194.62072587013245
sbag1
(g2126
g3
NtRp2747
(dp2748
g2129
F39
sg2130
F0
sg2131
F1
sg2132
I1
sg2133
F195.39592695236206
sbag1
(g2126
g3
NtRp2749
(dp2750
g2129
F39
sg2130
F0
sg2131
F1
sg2132
I1
sg2133
F218.22385287284851
sbag1
(g2126
g3
NtRp2751
(dp2752
g2129
F37
sg2130
F0
sg2131
F1
sg2132
I2
sg2133
F245.60870409011841
sbag1
(g2126
g3
NtRp2753
(dp2754
g2129
F37
sg2130
F0
sg2131
F1
sg2132
I2
sg2133
F297.49215388298035
sbag1
(g2126
g3
NtRp2755
(dp2756
g2129
F35
sg2130
F0
sg2131
F1
sg2132
I2
sg2133
F297.49861788749695
sbag1
(g2126
g3
NtRp2757
(dp2758
g2129
F35
sg2130
F2
sg2131
F1
sg2132
I3
sg2133
F306.44347596168518
sbag1
(g2126
g3
NtRp2759
(dp2760
g2129
F35
sg2130
F6
sg2131
F1
sg2132
I3
sg2133
F315.69490194320679
sbag1
(g2126
g3
NtRp2761
(dp2762
g2129
F35
sg2130
F10
sg2131
F1
sg2132
I3
sg2133
F316.65987801551819
sbag1
(g2126
g3
NtRp2763
(dp2764
g2129
F35
sg2130
F18
sg2131
F1
sg2132
I3
sg2133
F318.96521496772766
sbag1
(g2126
g3
NtRp2765
(dp2766
g2129
F35
sg2130
F22
sg2131
F1
sg2132
I3
sg2133
F320.7565279006958
sbag1
(g2126
g3
NtRp2767
(dp2768
g2129
F35
sg2130
F29
sg2131
F1
sg2132
I3
sg2133
F321.6290168762207
sbag1
(g2126
g3
NtRp2769
(dp2770
g2129
F35
sg2130
F35
sg2131
F1
sg2132
I3
sg2133
F322.69472002983093
sbag1
(g2126
g3
NtRp2771
(dp2772
g2129
F35
sg2130
F41
sg2131
F1
sg2132
I3
sg2133
F323.47380900382996
sbag1
(g2126
g3
NtRp2773
(dp2774
g2129
F35
sg2130
F57
sg2131
F2
sg2132
I3
sg2133
F325.56430888175964
sbag1
(g2126
g3
NtRp2775
(dp2776
g2129
F35
sg2130
F66
sg2131
F2
sg2132
I3
sg2133
F326.54546499252319
sbag1
(g2126
g3
NtRp2777
(dp2778
g2129
F35
sg2130
F80
sg2131
F2
sg2132
I3
sg2133
F327.81553101539612
sbag1
(g2126
g3
NtRp2779
(dp2780
g2129
F35
sg2130
F92
sg2131
F2
sg2132
I3
sg2133
F328.35247588157654
sbag1
(g2126
g3
NtRp2781
(dp2782
g2129
F35
sg2130
F119
sg2131
F2
sg2132
I3
sg2133
F329.97905492782593
sbag1
(g2126
g3
NtRp2783
(dp2784
g2129
F35
sg2130
F140
sg2131
F2
sg2132
I3
sg2133
F330.50046992301941
sbag1
(g2126
g3
NtRp2785
(dp2786
g2129
F35
sg2130
F160
sg2131
F2
sg2132
I3
sg2133
F331.8694019317627
sbag1
(g2126
g3
NtRp2787
(dp2788
g2129
F35
sg2130
F177
sg2131
F2
sg2132
I3
sg2133
F332.41735792160034
sbag1
(g2126
g3
NtRp2789
(dp2790
g2129
F35
sg2130
F204
sg2131
F2
sg2132
I3
sg2133
F333.6943690776825
sbag1
(g2126
g3
NtRp2791
(dp2792
g2129
F35
sg2130
F217
sg2131
F2
sg2132
I3
sg2133
F334.60858392715454
sbag1
(g2126
g3
NtRp2793
(dp2794
g2129
F35
sg2130
F254
sg2131
F2
sg2132
I3
sg2133
F336.94694495201111
sbag1
(g2126
g3
NtRp2795
(dp2796
g2129
F35
sg2130
F269
sg2131
F2
sg2132
I3
sg2133
F337.83718991279602
sbag1
(g2126
g3
NtRp2797
(dp2798
g2129
F35
sg2130
F290
sg2131
F2
sg2132
I3
sg2133
F338.73447108268738
sbag1
(g2126
g3
NtRp2799
(dp2800
g2129
F35
sg2130
F307
sg2131
F2
sg2132
I3
sg2133
F339.60441398620605
sbag1
(g2126
g3
NtRp2801
(dp2802
g2129
F35
sg2130
F324
sg2131
F2
sg2132
I3
sg2133
F340.27298593521118
sbag1
(g2126
g3
NtRp2803
(dp2804
g2129
F35
sg2130
F373
sg2131
F2
sg2132
I3
sg2133
F341.88174510002136
sbag1
(g2126
g3
NtRp2805
(dp2806
g2129
F35
sg2130
F394
sg2131
F2
sg2132
I3
sg2133
F342.96036791801453
sbag1
(g2126
g3
NtRp2807
(dp2808
g2129
F35
sg2130
F423
sg2131
F2
sg2132
I3
sg2133
F343.80204701423645
sbag1
(g2126
g3
NtRp2809
(dp2810
g2129
F35
sg2130
F448
sg2131
F2
sg2132
I3
sg2133
F344.85919189453125
sbag1
(g2126
g3
NtRp2811
(dp2812
g2129
F35
sg2130
F483
sg2131
F2
sg2132
I3
sg2133
F345.76292610168457
sbag1
(g2126
g3
NtRp2813
(dp2814
g2129
F35
sg2130
F511
sg2131
F2
sg2132
I3
sg2133
F346.78052687644958
sbag1
(g2126
g3
NtRp2815
(dp2816
g2129
F35
sg2130
F556
sg2131
F2
sg2132
I3
sg2133
F347.7886950969696
sbag1
(g2126
g3
NtRp2817
(dp2818
g2129
F35
sg2130
F582
sg2131
F2
sg2132
I3
sg2133
F349.7800669670105
sbag1
(g2126
g3
NtRp2819
(dp2820
g2129
F35
sg2130
F626
sg2131
F2
sg2132
I3
sg2133
F351.47900795936584
sbag1
(g2126
g3
NtRp2821
(dp2822
g2129
F35
sg2130
F672
sg2131
F2
sg2132
I3
sg2133
F352.77662992477417
sbag1
(g2126
g3
NtRp2823
(dp2824
g2129
F35
sg2130
F704
sg2131
F2
sg2132
I3
sg2133
F354.8188099861145
sbag1
(g2126
g3
NtRp2825
(dp2826
g2129
F35
sg2130
F750
sg2131
F2
sg2132
I3
sg2133
F358.04066705703735
sbag1
(g2126
g3
NtRp2827
(dp2828
g2129
F35
sg2130
F798
sg2131
F2
sg2132
I3
sg2133
F359.66199398040771
sbag1
(g2126
g3
NtRp2829
(dp2830
g2129
F35
sg2130
F828
sg2131
F2
sg2132
I3
sg2133
F362.03445601463318
sbag1
(g2126
g3
NtRp2831
(dp2832
g2129
F32
sg2130
F847
sg2131
F2
sg2132
I4
sg2133
F362.04605293273926
sbag1
(g2126
g3
NtRp2833
(dp2834
g2129
F32
sg2130
F852
sg2131
F2
sg2132
I4
sg2133
F364.69975900650024
sbag1
(g2126
g3
NtRp2835
(dp2836
g2129
F32
sg2130
F862
sg2131
F2
sg2132
I4
sg2133
F368.71137499809265
sbag1
(g2126
g3
NtRp2837
(dp2838
g2129
F32
sg2130
F917
sg2131
F2
sg2132
I4
sg2133
F370.72269201278687
sbag1
(g2126
g3
NtRp2839
(dp2840
g2129
F32
sg2130
F949
sg2131
F2
sg2132
I4
sg2133
F374.8340060710907
sbag1
(g2126
g3
NtRp2841
(dp2842
g2129
F32
sg2130
F996
sg2131
F2
sg2132
I4
sg2133
F379.19053101539612
sbag1
(g2126
g3
NtRp2843
(dp2844
g2129
F32
sg2130
F1033
sg2131
F2
sg2132
I4
sg2133
F382.21856498718262
sbag1
(g2126
g3
NtRp2845
(dp2846
g2129
F32
sg2130
F1084
sg2131
F2
sg2132
I4
sg2133
F385.0021390914917
sbag1
(g2126
g3
NtRp2847
(dp2848
g2129
F32
sg2130
F1154
sg2131
F2
sg2132
I4
sg2133
F387.55693697929382
sbag1
(g2126
g3
NtRp2849
(dp2850
g2129
F32
sg2130
F1239
sg2131
F2
sg2132
I4
sg2133
F390.34966397285461
sbag1
(g2126
g3
NtRp2851
(dp2852
g2129
F32
sg2130
F1300
sg2131
F2
sg2132
I4
sg2133
F394.20151591300964
sbag1
(g2126
g3
NtRp2853
(dp2854
g2129
F32
sg2130
F1373
sg2131
F2
sg2132
I4
sg2133
F398.26553988456726
sbag1
(g2126
g3
NtRp2855
(dp2856
g2129
F32
sg2130
F1481
sg2131
F2
sg2132
I4
sg2133
F401.87437605857849
sbag1
(g2126
g3
NtRp2857
(dp2858
g2129
F32
sg2130
F1574
sg2131
F2
sg2132
I4
sg2133
F407.96490097045898
sbag1
(g2126
g3
NtRp2859
(dp2860
g2129
F32
sg2130
F1730
sg2131
F2
sg2132
I4
sg2133
F412.02611088752747
sbag1
(g2126
g3
NtRp2861
(dp2862
g2129
F32
sg2130
F1885
sg2131
F2
sg2132
I4
sg2133
F416.1222128868103
sbag1
(g2126
g3
NtRp2863
(dp2864
g2129
F32
sg2130
F2067
sg2131
F2
sg2132
I4
sg2133
F420.45116710662842
sbag1
(g2126
g3
NtRp2865
(dp2866
g2129
F32
sg2130
F2205
sg2131
F2
sg2132
I4
sg2133
F425.7502589225769
sbag1
(g2126
g3
NtRp2867
(dp2868
g2129
F32
sg2130
F2404
sg2131
F2
sg2132
I4
sg2133
F430.46259307861328
sbag1
(g2126
g3
NtRp2869
(dp2870
g2129
F32
sg2130
F2621
sg2131
F2
sg2132
I4
sg2133
F435.701504945755
sbag1
(g2126
g3
NtRp2871
(dp2872
g2129
F32
sg2130
F2792
sg2131
F2
sg2132
I4
sg2133
F440.93917298316956
sbag1
(g2126
g3
NtRp2873
(dp2874
g2129
F32
sg2130
F3008
sg2131
F2
sg2132
I4
sg2133
F447.18951988220215
sbag1
(g2126
g3
NtRp2875
(dp2876
g2129
F32
sg2130
F3321
sg2131
F2
sg2132
I4
sg2133
F454.23589301109314
sbag1
(g2126
g3
NtRp2877
(dp2878
g2129
F32
sg2130
F3634
sg2131
F2
sg2132
I4
sg2133
F461.34970498085022
sbag1
(g2126
g3
NtRp2879
(dp2880
g2129
F32
sg2130
F3902
sg2131
F2
sg2132
I4
sg2133
F468.61508893966675
sbag1
(g2126
g3
NtRp2881
(dp2882
g2129
F32
sg2130
F4231
sg2131
F2
sg2132
I4
sg2133
F476.85885906219482
sbag1
(g2126
g3
NtRp2883
(dp2884
g2129
F32
sg2130
F4532
sg2131
F2
sg2132
I4
sg2133
F485.84150409698486
sbag1
(g2126
g3
NtRp2885
(dp2886
g2129
F32
sg2130
F4841
sg2131
F2
sg2132
I4
sg2133
F492.57741189002991
sbag1
(g2126
g3
NtRp2887
(dp2888
g2129
F32
sg2130
F4842
sg2131
F2
sg2132
I4
sg2133
F499.71010208129883
sbag1
(g2126
g3
NtRp2889
(dp2890
g2129
F31
sg2130
F5043
sg2131
F2
sg2132
I5
sg2133
F499.72263503074646
sbag1
(g2126
g3
NtRp2891
(dp2892
g2129
F31
sg2130
F5290
sg2131
F2
sg2132
I5
sg2133
F506.79605293273926
sbag1
(g2126
g3
NtRp2893
(dp2894
g2129
F31
sg2130
F5293
sg2131
F2
sg2132
I5
sg2133
F563.01695990562439
sbag1
(g2126
g3
NtRp2895
(dp2896
g2129
F31
sg2130
F5293
sg2131
F2
sg2132
I5
sg2133
F585.74634289741516
sbag1
(g2126
g3
NtRp2897
(dp2898
g2129
F31
sg2130
F5294
sg2131
F2
sg2132
I5
sg2133
F587.70448589324951
sbag1
(g2126
g3
NtRp2899
(dp2900
g2129
F31
sg2130
F5295
sg2131
F2
sg2132
I5
sg2133
F598.36088609695435
sbag1
(g2126
g3
NtRp2901
(dp2902
g2129
F31
sg2130
F5295
sg2131
F2
sg2132
I5
sg2133
F599.07218289375305
sbag1
(g2126
g3
NtRp2903
(dp2904
g2129
F31
sg2130
F5296
sg2131
F2
sg2132
I5
sg2133
F600.10395193099976
sbag1
(g2126
g3
NtRp2905
(dp2906
g2129
F31
sg2130
F5297
sg2131
F2
sg2132
I5
sg2133
F602.87110805511475
sbag1
(g2126
g3
NtRp2907
(dp2908
g2129
F31
sg2130
F5297
sg2131
F2
sg2132
I5
sg2133
F603.47074389457703
sbag1
(g2126
g3
NtRp2909
(dp2910
g2129
F31
sg2130
F5298
sg2131
F2
sg2132
I5
sg2133
F604.79386401176453
sbag1
(g2126
g3
NtRp2911
(dp2912
g2129
F31
sg2130
F5299
sg2131
F2
sg2132
I5
sg2133
F639.28132796287537
sbag1
(g2126
g3
NtRp2913
(dp2914
g2129
F31
sg2130
F5300
sg2131
F2
sg2132
I5
sg2133
F667.64324402809143
sbag1
(g2126
g3
NtRp2915
(dp2916
g2129
F16
sg2130
F5300
sg2131
F2
sg2132
I5
sg2133
F679.74823188781738
sbag1
(g2126
g3
NtRp2917
(dp2918
g2129
F16
sg2130
F5301
sg2131
F2
sg2132
I6
sg2133
F680.1086699962616
sbag1
(g2126
g3
NtRp2919
(dp2920
g2129
F15
sg2130
F5303
sg2131
F2
sg2132
I7
sg2133
F926.62417507171631
sbag1
(g2126
g3
NtRp2921
(dp2922
g2129
F15
sg2130
F5303
sg2131
F3
sg2132
I7
sg2133
F940.03958606719971
sbag1
(g2126
g3
NtRp2923
(dp2924
g2129
F15
sg2130
F5304
sg2131
F3
sg2132
I7
sg2133
F942.17927002906799
sbag1
(g2126
g3
NtRp2925
(dp2926
g2129
F15
sg2130
F5304
sg2131
F3
sg2132
I7
sg2133
F943.90310001373291
sbag1
(g2126
g3
NtRp2927
(dp2928
g2129
F15
sg2130
F5305
sg2131
F3
sg2132
I7
sg2133
F944.12248301506042
sbag1
(g2126
g3
NtRp2929
(dp2930
g2129
F15
sg2130
F5306
sg2131
F3
sg2132
I7
sg2133
F947.49664402008057
sbag1
(g2126
g3
NtRp2931
(dp2932
g2129
F15
sg2130
F5306
sg2131
F3
sg2132
I7
sg2133
F952.79039788246155
sbag1
(g2126
g3
NtRp2933
(dp2934
g2129
F15
sg2130
F5307
sg2131
F3
sg2132
I7
sg2133
F954.91485500335693
sbag1
(g2126
g3
NtRp2935
(dp2936
g2129
F15
sg2130
F5308
sg2131
F3
sg2132
I7
sg2133
F965.51189708709717
sbag1
(g2126
g3
NtRp2937
(dp2938
g2129
F15
sg2130
F5309
sg2131
F3
sg2132
I7
sg2133
F966.41879796981812
sbag1
(g2126
g3
NtRp2939
(dp2940
g2129
F13
sg2130
F5309
sg2131
F3
sg2132
I7
sg2133
F970.7216169834137
sbag1
(g2126
g3
NtRp2941
(dp2942
g2129
F13
sg2130
F5310
sg2131
F3
sg2132
I8
sg2133
F971.9886999130249
sbag1
(g2126
g3
NtRp2943
(dp2944
g2129
F12
sg2130
F5312
sg2131
F3
sg2132
I9
sg2133
F983.2731819152832
sbag1
(g2126
g3
NtRp2945
(dp2946
g2129
F12
sg2130
F5313
sg2131
F3
sg2132
I9
sg2133
F991.38686299324036
sbag1
(g2126
g3
NtRp2947
(dp2948
g2129
F12
sg2130
F5315
sg2131
F4
sg2132
I9
sg2133
F1010.5408959388733
sbag1
(g2126
g3
NtRp2949
(dp2950
g2129
F6
sg2130
F5315
sg2131
F4
sg2132
I9
sg2133
F1021.9847700595856
sbag1
(g2126
g3
NtRp2951
(dp2952
g2129
F6
sg2130
F5317
sg2131
F4
sg2132
I10
sg2133
F1023.5219678878784
sbag1
(g2126
g3
NtRp2953
(dp2954
g2129
F6
sg2130
F5319
sg2131
F4
sg2132
I10
sg2133
F1024.7282691001892
sbag1
(g2126
g3
NtRp2955
(dp2956
g2129
F5
sg2130
F5325
sg2131
F4
sg2132
I11
sg2133
F1025.9122738838196
sbag1
(g2126
g3
NtRp2957
(dp2958
g2129
F5
sg2130
F5328
sg2131
F4
sg2132
I11
sg2133
F1026.9395020008087
sbag1
(g2126
g3
NtRp2959
(dp2960
g2129
F5
sg2130
F5346
sg2131
F4
sg2132
I11
sg2133
F1027.9813969135284
sbag1
(g2126
g3
NtRp2961
(dp2962
g2129
F5
sg2130
F5397
sg2131
F4
sg2132
I11
sg2133
F1028.9948809146881
sbag1
(g2126
g3
NtRp2963
(dp2964
g2129
F5
sg2130
F5651
sg2131
F4
sg2132
I11
sg2133
F1029.9789569377899
sbag1
(g2126
g3
NtRp2965
(dp2966
g2129
F5
sg2130
F6073
sg2131
F4
sg2132
I11
sg2133
F1030.9458689689636
sbag1
(g2126
g3
NtRp2967
(dp2968
g2129
F5
sg2130
F6399
sg2131
F4
sg2132
I11
sg2133
F1031.2811589241028
sbag1
(g2126
g3
NtRp2969
(dp2970
g2129
F4
sg2130
F6442
sg2131
F4
sg2132
I10
sg2133
F1031.3164350986481
sbasg2138
I131
sbsg2139
(dp2971
I1
(lp2972
I5
aI9
aI11
aI13
aI15
aI16
aI18
aI19
aI20
aI21
aI23
aI24
aI25
aI26
aI27
aI28
aI30
aI32
aI35
aI39
aI41
aI45
aI48
aI51
aI53
aI55
aI58
aI59
aI64
aI68
aI72
aI77
aI84
aI85
aI86
aI87
aI90
aI92
aI93
aI96
aI97
aI98
aI102
aI106
aI108
aI110
aI117
aI118
aI120
aI121
aI124
aI126
aI127
aI128
asI2
(lp2973
I12
aI14
aI22
aI29
aI34
aI37
aI38
aI42
aI43
aI44
aI46
aI56
aI62
aI65
aI66
aI75
aI76
aI80
aI88
aI89
aI91
aI94
aI103
aI111
aI119
aI122
aI123
aI125
aI149
aI151
aI156
aI159
aI160
aI181
aI182
aI184
aI185
aI190
aI191
aI192
asI3
(lp2974
I6
aI7
aI8
aI10
aI17
aI52
aI63
aI67
aI70
aI78
aI79
aI81
aI82
aI101
aI112
aI113
aI129
aI148
aI152
aI153
aI155
aI178
aI186
aI189
aI193
aI195
aI198
aI199
aI203
aI208
aI220
aI221
aI222
aI224
asI4
(lp2975
I1
aI2
aI3
aI4
aI31
aI33
aI36
aI40
aI47
aI49
aI50
aI54
aI57
aI60
aI61
aI69
aI71
aI73
aI74
aI83
aI95
aI99
aI100
aI104
aI105
aI107
aI109
aI114
aI115
aI116
aI130
aI131
aI132
aI133
aI134
aI135
aI136
aI137
aI138
aI139
aI140
aI141
aI142
aI143
aI144
aI145
aI146
aI147
aI150
aI154
aI157
aI158
aI161
aI162
aI163
aI164
aI165
aI166
aI167
aI168
aI169
aI170
aI171
aI172
aI173
aI174
aI175
aI176
aI177
aI179
aI180
aI183
aI187
aI188
aI194
aI196
aI197
aI200
aI201
aI202
aI204
aI205
aI206
aI207
aI209
aI210
aI211
aI212
aI213
aI214
aI215
aI216
aI217
aI218
aI219
aI223
aI225
aI226
aI227
aI228
aI229
aI230
aI231
aI232
aI233
aI234
aI235
aI236
aI237
aI238
aI239
aI240
aI241
aI242
aI243
aI244
aI245
aI246
aI247
aI248
aI249
aI250
aI251
aI252
aI253
aI254
aI255
asI5
(lp2976
sI6
(lp2977
sI7
(lp2978
sI8
(lp2979
sI9
(lp2980
sI10
(lp2981
sI11
(lp2982
sI12
(lp2983
sI13
(lp2984
sI14
(lp2985
sI15
(lp2986
sI16
(lp2987
sI17
(lp2988
sI18
(lp2989
sI19
(lp2990
sI20
(lp2991
sI21
(lp2992
sI22
(lp2993
sI23
(lp2994
sI24
(lp2995
sI25
(lp2996
sI26
(lp2997
sI27
(lp2998
sI28
(lp2999
sI29
(lp3000
sI30
(lp3001
sI31
(lp3002
sI32
(lp3003
sI33
(lp3004
sI34
(lp3005
sI35
(lp3006
sI36
(lp3007
sI37
(lp3008
sI38
(lp3009
sI39
(lp3010
sI40
(lp3011
sI41
(lp3012
sI42
(lp3013
sI43
(lp3014
sI44
(lp3015
sI45
(lp3016
sI46
(lp3017
sI47
(lp3018
sI48
(lp3019
sI49
(lp3020
sI50
(lp3021
ssbssI6
(dp3022
((S'Decision'
I00
t(S'FlowExtension'
I00
t(S'StrongLoopFreedom'
I00
ttp3023
g1
(g2106
g3
NtRp3024
(dp3025
g2109
g1
(g2110
g3
NtRp3026
(dp3027
g2109
I2
sg2113
F2605.6766450405121
sg2114
F0
sg2115
F4
sg2116
F4
sg2117
F2612.9903180599213
sg2118
I10
sbsg2119
g1
(g2120
g3
NtRp3028
(dp3029
g2123
F1537124340.9782009
sg2124
(lp3030
g1
(g2126
g3
NtRp3031
(dp3032
g2129
F1e+100
sg2130
F0
sg2131
F0
sg2132
I0
sg2133
F14.834490060806274
sbag1
(g2126
g3
NtRp3033
(dp3034
g2129
F1e+100
sg2130
F0
sg2131
F0.27827153878242883
sg2132
I0
sg2133
F62.527652025222778
sbag1
(g2126
g3
NtRp3035
(dp3036
g2129
F1e+100
sg2130
F0
sg2131
F0.27827153878242883
sg2132
I0
sg2133
F73.183338165283203
sbag1
(g2126
g3
NtRp3037
(dp3038
g2129
F1e+100
sg2130
F0
sg2131
F0.27827153878242883
sg2132
I0
sg2133
F77.005067110061646
sbag1
(g2126
g3
NtRp3039
(dp3040
g2129
F1e+100
sg2130
F0
sg2131
F0.27827153878242883
sg2132
I0
sg2133
F78.677050113677979
sbag1
(g2126
g3
NtRp3041
(dp3042
g2129
F1e+100
sg2130
F0
sg2131
F0.27827153878242883
sg2132
I0
sg2133
F81.059201002120972
sbag1
(g2126
g3
NtRp3043
(dp3044
g2129
F1e+100
sg2130
F0
sg2131
F0.27827153878242883
sg2132
I0
sg2133
F86.323877096176147
sbag1
(g2126
g3
NtRp3045
(dp3046
g2129
F1e+100
sg2130
F0
sg2131
F0.27827153878242883
sg2132
I0
sg2133
F107.68967509269714
sbag1
(g2126
g3
NtRp3047
(dp3048
g2129
F1e+100
sg2130
F0
sg2131
F0.27827153878242883
sg2132
I0
sg2133
F108.81194806098938
sbag1
(g2126
g3
NtRp3049
(dp3050
g2129
F1e+100
sg2130
F0
sg2131
F0.27827153878242883
sg2132
I0
sg2133
F110.60389709472656
sbag1
(g2126
g3
NtRp3051
(dp3052
g2129
F1e+100
sg2130
F0
sg2131
F0.27827153878242883
sg2132
I0
sg2133
F119.27445816993713
sbag1
(g2126
g3
NtRp3053
(dp3054
g2129
F1e+100
sg2130
F0
sg2131
F0.27827153878242883
sg2132
I0
sg2133
F186.91883397102356
sbag1
(g2126
g3
NtRp3055
(dp3056
g2129
F1e+100
sg2130
F0
sg2131
F0.27827153878242883
sg2132
I0
sg2133
F296.4345531463623
sbag1
(g2126
g3
NtRp3057
(dp3058
g2129
F1e+100
sg2130
F0
sg2131
F0.27827153878242883
sg2132
I0
sg2133
F304.37033820152283
sbag1
(g2126
g3
NtRp3059
(dp3060
g2129
F1e+100
sg2130
F2
sg2131
F0.27827153878242883
sg2132
I0
sg2133
F350.48398613929749
sbag1
(g2126
g3
NtRp3061
(dp3062
g2129
F1e+100
sg2130
F6
sg2131
F0.39554833739780182
sg2132
I0
sg2133
F399.49899816513062
sbag1
(g2126
g3
NtRp3063
(dp3064
g2129
F1e+100
sg2130
F10
sg2131
F0.39554833739780182
sg2132
I0
sg2133
F434.37461400032043
sbag1
(g2126
g3
NtRp3065
(dp3066
g2129
F1e+100
sg2130
F14
sg2131
F0.39554833739780182
sg2132
I0
sg2133
F469.65181398391724
sbag1
(g2126
g3
NtRp3067
(dp3068
g2129
F1e+100
sg2130
F18
sg2131
F0.39554833739780182
sg2132
I0
sg2133
F501.62275409698486
sbag1
(g2126
g3
NtRp3069
(dp3070
g2129
F1e+100
sg2130
F22
sg2131
F0.39554833739780182
sg2132
I0
sg2133
F527.1553680896759
sbag1
(g2126
g3
NtRp3071
(dp3072
g2129
F1e+100
sg2130
F27
sg2131
F0.39554833739780182
sg2132
I0
sg2133
F566.73588418960571
sbag1
(g2126
g3
NtRp3073
(dp3074
g2129
F1e+100
sg2130
F34
sg2131
F0.39554833739780182
sg2132
I0
sg2133
F609.21646499633789
sbag1
(g2126
g3
NtRp3075
(dp3076
g2129
F1e+100
sg2130
F41
sg2131
F0.39554833739780182
sg2132
I0
sg2133
F642.44832515716553
sbag1
(g2126
g3
NtRp3077
(dp3078
g2129
F1e+100
sg2130
F51
sg2131
F0.39554833739780204
sg2132
I0
sg2133
F675.95041108131409
sbag1
(g2126
g3
NtRp3079
(dp3080
g2129
F1e+100
sg2130
F59
sg2131
F0.39554833739780204
sg2132
I0
sg2133
F713.19760417938232
sbag1
(g2126
g3
NtRp3081
(dp3082
g2129
F1e+100
sg2130
F70
sg2131
F0.39554833739780204
sg2132
I0
sg2133
F755.62382316589355
sbag1
(g2126
g3
NtRp3083
(dp3084
g2129
F1e+100
sg2130
F82
sg2131
F0.39554833739780204
sg2132
I0
sg2133
F792.95405006408691
sbag1
(g2126
g3
NtRp3085
(dp3086
g2129
F1e+100
sg2130
F97
sg2131
F0.39554833739780204
sg2132
I0
sg2133
F834.3541431427002
sbag1
(g2126
g3
NtRp3087
(dp3088
g2129
F1e+100
sg2130
F111
sg2131
F0.39554833739780204
sg2132
I0
sg2133
F862.3216609954834
sbag1
(g2126
g3
NtRp3089
(dp3090
g2129
F1e+100
sg2130
F126
sg2131
F0.39554833739780204
sg2132
I0
sg2133
F891.19006609916687
sbag1
(g2126
g3
NtRp3091
(dp3092
g2129
F1e+100
sg2130
F144
sg2131
F0.39554833739780204
sg2132
I0
sg2133
F930.09441208839417
sbag1
(g2126
g3
NtRp3093
(dp3094
g2129
F1e+100
sg2130
F163
sg2131
F0.39554833739780204
sg2132
I0
sg2133
F966.51388597488403
sbag1
(g2126
g3
NtRp3095
(dp3096
g2129
F1e+100
sg2130
F183
sg2131
F0.39554833739780204
sg2132
I0
sg2133
F1001.4977381229401
sbag1
(g2126
g3
NtRp3097
(dp3098
g2129
F1e+100
sg2130
F208
sg2131
F0.39554833739780204
sg2132
I0
sg2133
F1034.0706870555878
sbag1
(g2126
g3
NtRp3099
(dp3100
g2129
F1e+100
sg2130
F236
sg2131
F0.39554833739780204
sg2132
I0
sg2133
F1056.4308450222015
sbag1
(g2126
g3
NtRp3101
(dp3102
g2129
F1e+100
sg2130
F265
sg2131
F0.39554833739780204
sg2132
I0
sg2133
F1084.8316731452942
sbag1
(g2126
g3
NtRp3103
(dp3104
g2129
F1e+100
sg2130
F298
sg2131
F0.39554833739780204
sg2132
I0
sg2133
F1118.2003321647644
sbag1
(g2126
g3
NtRp3105
(dp3106
g2129
F1e+100
sg2130
F335
sg2131
F0.39554833739780204
sg2132
I0
sg2133
F1153.1167831420898
sbag1
(g2126
g3
NtRp3107
(dp3108
g2129
F1e+100
sg2130
F375
sg2131
F0.39554833739780204
sg2132
I0
sg2133
F1196.7000911235809
sbag1
(g2126
g3
NtRp3109
(dp3110
g2129
F1e+100
sg2130
F421
sg2131
F0.39554833739780204
sg2132
I0
sg2133
F1228.9432351589203
sbag1
(g2126
g3
NtRp3111
(dp3112
g2129
F39
sg2130
F421
sg2131
F0.39554833739780204
sg2132
I0
sg2133
F1228.9541552066803
sbag1
(g2126
g3
NtRp3113
(dp3114
g2129
F39
sg2130
F436
sg2131
F0.46629422939051424
sg2132
I1
sg2133
F1272.0686111450195
sbag1
(g2126
g3
NtRp3115
(dp3116
g2129
F20
sg2130
F437
sg2131
F0.46629422939051424
sg2132
I1
sg2133
F2418.9057312011719
sbag1
(g2126
g3
NtRp3117
(dp3118
g2129
F20
sg2130
F439
sg2131
F1
sg2132
I2
sg2133
F2436.7130830287933
sbag1
(g2126
g3
NtRp3119
(dp3120
g2129
F20
sg2130
F439
sg2131
F1
sg2132
I2
sg2133
F2448.9071221351624
sbag1
(g2126
g3
NtRp3121
(dp3122
g2129
F15
sg2130
F439
sg2131
F1
sg2132
I2
sg2133
F2449.2123970985413
sbag1
(g2126
g3
NtRp3123
(dp3124
g2129
F14
sg2130
F439
sg2131
F1
sg2132
I3
sg2133
F2449.7442510128021
sbag1
(g2126
g3
NtRp3125
(dp3126
g2129
F14
sg2130
F440
sg2131
F1
sg2132
I4
sg2133
F2450.5065801143646
sbag1
(g2126
g3
NtRp3127
(dp3128
g2129
F14
sg2130
F440
sg2131
F1
sg2132
I4
sg2133
F2455.1528041362762
sbag1
(g2126
g3
NtRp3129
(dp3130
g2129
F12.999999999999998
sg2130
F440
sg2131
F1
sg2132
I4
sg2133
F2456.3681681156158
sbag1
(g2126
g3
NtRp3131
(dp3132
g2129
F12
sg2130
F441
sg2131
F1
sg2132
I6
sg2133
F2457.6275811195374
sbag1
(g2126
g3
NtRp3133
(dp3134
g2129
F12
sg2130
F442
sg2131
F1
sg2132
I6
sg2133
F2459.8230540752411
sbag1
(g2126
g3
NtRp3135
(dp3136
g2129
F12
sg2130
F442
sg2131
F1
sg2132
I6
sg2133
F2474.8053879737854
sbag1
(g2126
g3
NtRp3137
(dp3138
g2129
F9.9999999999999982
sg2130
F442
sg2131
F1
sg2132
I6
sg2133
F2475.3143181800842
sbag1
(g2126
g3
NtRp3139
(dp3140
g2129
F10
sg2130
F443
sg2131
F1
sg2132
I7
sg2133
F2475.4039490222931
sbag1
(g2126
g3
NtRp3141
(dp3142
g2129
F10
sg2130
F443
sg2131
F1
sg2132
I7
sg2133
F2479.2870161533356
sbag1
(g2126
g3
NtRp3143
(dp3144
g2129
F10
sg2130
F444
sg2131
F1
sg2132
I7
sg2133
F2480.2206630706787
sbag1
(g2126
g3
NtRp3145
(dp3146
g2129
F10
sg2130
F445
sg2131
F1
sg2132
I7
sg2133
F2507.6215779781342
sbag1
(g2126
g3
NtRp3147
(dp3148
g2129
F10
sg2130
F446
sg2131
F1
sg2132
I7
sg2133
F2541.3397960662842
sbag1
(g2126
g3
NtRp3149
(dp3150
g2129
F9
sg2130
F448
sg2131
F1
sg2132
I8
sg2133
F2548.132933139801
sbag1
(g2126
g3
NtRp3151
(dp3152
g2129
F9
sg2130
F448
sg2131
F1
sg2132
I8
sg2133
F2549.8799421787262
sbag1
(g2126
g3
NtRp3153
(dp3154
g2129
F7
sg2130
F449
sg2131
F1
sg2132
I9
sg2133
F2550.3387160301208
sbag1
(g2126
g3
NtRp3155
(dp3156
g2129
F7
sg2130
F451
sg2131
F1
sg2132
I9
sg2133
F2556.8317000865936
sbag1
(g2126
g3
NtRp3157
(dp3158
g2129
F6
sg2130
F455
sg2131
F1
sg2132
I10
sg2133
F2559.7477490901947
sbag1
(g2126
g3
NtRp3159
(dp3160
g2129
F4.9999999999999991
sg2130
F455
sg2131
F1
sg2132
I10
sg2133
F2560.3717710971832
sbag1
(g2126
g3
NtRp3161
(dp3162
g2129
F5
sg2130
F457
sg2131
F1
sg2132
I11
sg2133
F2560.7852401733398
sbag1
(g2126
g3
NtRp3163
(dp3164
g2129
F5
sg2130
F459
sg2131
F2
sg2132
I11
sg2133
F2564.8169221878052
sbag1
(g2126
g3
NtRp3165
(dp3166
g2129
F5
sg2130
F460
sg2131
F2
sg2132
I11
sg2133
F2565.4512631893158
sbag1
(g2126
g3
NtRp3167
(dp3168
g2129
F5
sg2130
F462
sg2131
F3
sg2132
I11
sg2133
F2606.5501379966736
sbag1
(g2126
g3
NtRp3169
(dp3170
g2129
F5
sg2130
F465
sg2131
F3.0000000000000009
sg2132
I11
sg2133
F2609.7845020294189
sbag1
(g2126
g3
NtRp3171
(dp3172
g2129
F5
sg2130
F473
sg2131
F3.0000000000000009
sg2132
I11
sg2133
F2611.4779369831085
sbag1
(g2126
g3
NtRp3173
(dp3174
g2129
F5
sg2130
F495
sg2131
F3.0000000000000009
sg2132
I11
sg2133
F2612.5854799747467
sbag1
(g2126
g3
NtRp3175
(dp3176
g2129
F4
sg2130
F519
sg2131
F4
sg2132
I10
sg2133
F2612.9903011322021
sbasg2138
I72
sbsg2139
(dp3177
I1
(lp3178
I10
aI12
aI15
aI17
aI21
aI23
aI26
aI27
aI34
aI36
aI41
aI47
aI48
aI49
aI54
aI56
aI70
aI81
aI86
aI88
aI92
aI93
aI94
aI100
aI101
aI105
aI118
aI119
aI123
aI126
aI128
aI132
aI133
aI138
aI143
aI154
aI160
aI171
aI173
aI177
aI186
aI188
aI192
aI201
aI202
aI203
aI205
aI207
aI208
aI210
aI211
aI216
aI219
aI227
aI228
aI232
aI236
aI237
aI238
aI242
aI243
aI244
aI247
aI250
aI251
aI252
aI254
aI256
asI2
(lp3179
I2
aI3
aI4
aI5
aI6
aI7
aI8
aI9
aI11
aI13
aI14
aI16
aI18
aI19
aI22
aI24
aI29
aI31
aI32
aI33
aI37
aI38
aI39
aI40
aI43
aI50
aI51
aI52
aI53
aI55
aI65
aI66
aI67
aI68
aI69
aI71
aI72
aI73
aI74
aI75
aI76
aI77
aI78
aI79
aI80
aI82
aI83
aI84
aI85
aI87
aI89
aI90
aI91
aI95
aI96
aI97
aI98
aI99
aI102
aI104
aI106
aI107
aI108
aI109
aI110
aI111
aI112
aI113
aI114
aI115
aI116
aI117
aI120
aI121
aI122
aI125
aI127
aI129
aI130
aI131
aI134
aI135
aI136
aI137
aI139
aI140
aI141
aI142
aI146
aI147
aI148
aI149
aI150
aI153
aI155
aI156
aI157
aI159
aI161
aI162
aI163
aI164
aI166
aI167
aI168
aI169
aI172
aI174
aI176
aI178
aI179
aI180
aI181
aI182
aI183
aI184
aI185
aI187
aI189
aI190
aI191
aI193
aI194
aI195
aI196
aI197
aI198
aI199
aI200
aI204
aI206
aI209
aI213
aI214
aI215
aI217
aI218
aI221
aI223
aI224
aI225
aI226
aI229
aI230
aI239
aI240
aI241
aI245
aI246
aI257
aI258
aI259
aI260
aI261
aI262
aI263
aI264
aI265
aI266
aI267
aI270
aI271
aI273
aI274
aI277
aI280
aI281
aI282
aI283
aI284
aI285
aI286
aI288
aI289
aI290
aI291
aI292
aI294
aI295
aI297
aI298
aI299
aI301
aI302
aI303
aI304
aI305
aI306
aI307
aI308
aI309
aI310
aI311
aI312
aI313
aI314
aI315
aI316
aI317
aI318
aI319
aI320
aI322
aI324
aI325
aI326
aI327
aI328
aI329
aI330
aI331
aI332
aI333
aI334
aI336
aI337
aI339
aI341
aI342
aI344
aI346
aI352
aI353
aI355
aI356
aI357
aI358
aI360
aI361
aI364
aI365
aI366
aI368
aI369
aI370
aI371
aI372
aI373
aI374
aI375
aI377
aI378
aI379
aI380
aI382
aI383
aI384
asI3
(lp3180
I1
aI64
aI349
aI350
aI387
aI389
aI392
aI393
aI396
aI397
aI398
aI399
aI400
aI401
aI402
aI408
aI414
aI415
aI416
aI417
aI418
aI419
aI420
aI421
aI423
aI425
aI426
aI427
aI430
aI433
aI437
aI440
aI448
asI4
(lp3181
I20
aI25
aI28
aI30
aI35
aI42
aI44
aI45
aI46
aI57
aI58
aI59
aI60
aI61
aI62
aI63
aI103
aI124
aI144
aI145
aI151
aI152
aI158
aI165
aI170
aI175
aI212
aI220
aI222
aI231
aI233
aI234
aI235
aI248
aI249
aI253
aI255
aI268
aI269
aI272
aI275
aI276
aI278
aI279
aI287
aI293
aI296
aI300
aI321
aI323
aI335
aI338
aI340
aI343
aI345
aI347
aI348
aI351
aI354
aI359
aI362
aI363
aI367
aI376
aI381
aI385
aI386
aI388
aI390
aI391
aI394
aI395
aI403
aI404
aI405
aI406
aI407
aI409
aI410
aI411
aI412
aI413
aI422
aI424
aI428
aI429
aI431
aI432
aI434
aI435
aI436
aI438
aI439
aI441
aI442
aI443
aI444
aI445
aI446
aI447
aI449
aI450
aI451
aI452
aI453
aI454
aI455
aI456
aI457
aI458
aI459
aI460
aI461
aI462
aI463
aI464
aI465
aI466
aI467
aI468
aI469
aI470
aI471
aI472
aI473
aI474
aI475
aI476
aI477
aI478
aI479
aI480
aI481
aI482
aI483
aI484
aI485
aI486
aI487
aI488
aI489
aI490
aI491
aI492
aI493
aI494
aI495
aI496
aI497
aI498
aI499
aI500
aI501
aI502
aI503
aI504
aI505
aI506
aI507
aI508
aI509
aI510
aI511
asI5
(lp3182
sI6
(lp3183
sI7
(lp3184
sI8
(lp3185
sI9
(lp3186
sI10
(lp3187
sI11
(lp3188
sI12
(lp3189
sI13
(lp3190
sI14
(lp3191
sI15
(lp3192
sI16
(lp3193
sI17
(lp3194
sI18
(lp3195
sI19
(lp3196
sI20
(lp3197
sI21
(lp3198
sI22
(lp3199
sI23
(lp3200
sI24
(lp3201
sI25
(lp3202
sI26
(lp3203
sI27
(lp3204
sI28
(lp3205
sI29
(lp3206
sI30
(lp3207
sI31
(lp3208
sI32
(lp3209
sI33
(lp3210
sI34
(lp3211
sI35
(lp3212
sI36
(lp3213
sI37
(lp3214
sI38
(lp3215
sI39
(lp3216
sI40
(lp3217
sI41
(lp3218
sI42
(lp3219
sI43
(lp3220
sI44
(lp3221
sI45
(lp3222
sI46
(lp3223
sI47
(lp3224
sI48
(lp3225
sI49
(lp3226
sI50
(lp3227
sI51
(lp3228
sI52
(lp3229
sI53
(lp3230
sI54
(lp3231
sI55
(lp3232
sI56
(lp3233
ssbsssb.